	.text
	.syntax unified
	.eabi_attribute	67, "2.09"	@ Tag_conformance
	.cpu	cortex-m0
	.eabi_attribute	6, 12	@ Tag_CPU_arch
	.eabi_attribute	7, 77	@ Tag_CPU_arch_profile
	.eabi_attribute	8, 0	@ Tag_ARM_ISA_use
	.eabi_attribute	9, 1	@ Tag_THUMB_ISA_use
	.eabi_attribute	34, 0	@ Tag_CPU_unaligned_access
	.eabi_attribute	17, 1	@ Tag_ABI_PCS_GOT_use
	.eabi_attribute	20, 2	@ Tag_ABI_FP_denormal
	.eabi_attribute	21, 0	@ Tag_ABI_FP_exceptions
	.eabi_attribute	23, 1	@ Tag_ABI_FP_number_model
	.eabi_attribute	24, 1	@ Tag_ABI_align_needed
	.eabi_attribute	25, 1	@ Tag_ABI_align_preserved
	.eabi_attribute	38, 1	@ Tag_ABI_FP_16bit_format
	.eabi_attribute	18, 2	@ Tag_ABI_PCS_wchar_t
	.eabi_attribute	26, 1	@ Tag_ABI_enum_size
	.eabi_attribute	14, 0	@ Tag_ABI_PCS_R9_use
	.file	"clk.c"
	.file	1 "C:\\Keil_v5\\ARM\\ARMCLANG\\Bin\\..\\include" "stdint.h"
	.file	2 "C:\\Users\\nguye\\Desktop\\crc\\SampleCode\\ExampleCode\\NUC240_Software_CRC\\KEIL" "../../../../Library/Device/Nuvoton/NUC230_240/Include\\NUC230_240.h"
	.file	3 "C:\\Users\\nguye\\Desktop\\crc\\SampleCode\\ExampleCode\\NUC240_Software_CRC\\KEIL" "../../../../Library/CMSIS/Include\\core_cm0.h"
	.section	.text.CLK_DisableCKO,"ax",%progbits
	.hidden	CLK_DisableCKO                  @ -- Begin function CLK_DisableCKO
	.globl	CLK_DisableCKO
	.p2align	2
	.type	CLK_DisableCKO,%function
	.code	16                              @ @CLK_DisableCKO
	.thumb_func
CLK_DisableCKO:
.Lfunc_begin0:
	.file	4 "C:\\Users\\nguye\\Desktop\\crc\\SampleCode\\ExampleCode\\NUC240_Software_CRC\\KEIL" "../../../../Library/StdDriver/src/clk.c"
	.loc	4 33 0                          @ ../../../../Library/StdDriver/src/clk.c:33:0
	.fnstart
	.cfi_sections .debug_frame
	.cfi_startproc
@ %bb.0:
	.save	{r7, lr}
	push	{r7, lr}
	.cfi_def_cfa_offset 8
	.cfi_offset lr, -4
	.cfi_offset r7, -8
	ldr	r0, __arm_cp.0_0
.Ltmp0:
	.loc	4 35 5 prologue_end             @ ../../../../Library/StdDriver/src/clk.c:35:5
	bl	CLK_DisableModuleClock
	.loc	4 36 1 epilogue_begin           @ ../../../../Library/StdDriver/src/clk.c:36:1
	pop	{r7, pc}
.Ltmp1:
	.p2align	2
@ %bb.1:
	.loc	4 0 1 is_stmt 0                 @ ../../../../Library/StdDriver/src/clk.c:0:1
__arm_cp.0_0:
	.long	1713373190                      @ 0x66200006
.Lcpi_end0:
	.size	__arm_cp.0_0, .Lcpi_end0-__arm_cp.0_0
.Lfunc_end0:
	.size	CLK_DisableCKO, .Lfunc_end0-CLK_DisableCKO
	.cfi_endproc
	.cantunwind
	.fnend
                                        @ -- End function
	.section	.text.CLK_DisableModuleClock,"ax",%progbits
	.hidden	CLK_DisableModuleClock          @ -- Begin function CLK_DisableModuleClock
	.globl	CLK_DisableModuleClock
	.p2align	2
	.type	CLK_DisableModuleClock,%function
	.code	16                              @ @CLK_DisableModuleClock
	.thumb_func
CLK_DisableModuleClock:
.Lfunc_begin1:
	.loc	4 559 0 is_stmt 1               @ ../../../../Library/StdDriver/src/clk.c:559:0
	.fnstart
	.cfi_startproc
@ %bb.0:
	.pad	#20
	sub	sp, #20
	.cfi_def_cfa_offset 20
	str	r0, [sp, #16]
	movs	r0, #0
.Ltmp2:
	.loc	4 560 14 prologue_end           @ ../../../../Library/StdDriver/src/clk.c:560:14
	str	r0, [sp, #12]
	movs	r1, #44
	str	r1, [sp, #8]
	movs	r1, #4
	str	r1, [sp, #4]
	str	r0, [sp]
	.loc	4 562 107                       @ ../../../../Library/StdDriver/src/clk.c:562:107
	ldr	r0, [sp, #16]
	movs	r2, #31
	mov	r1, r0
	ands	r1, r2
	movs	r3, #1
	.loc	4 562 104 is_stmt 0             @ ../../../../Library/StdDriver/src/clk.c:562:104
	lsls	r3, r1
	.loc	4 562 53                        @ ../../../../Library/StdDriver/src/clk.c:562:53
	lsrs	r0, r0, #30
	lsls	r1, r0, #2
	mov	r0, sp
	ldr	r1, [r0, r1]
	ldr	r2, __arm_cp.1_0
	.loc	4 562 97                        @ ../../../../Library/StdDriver/src/clk.c:562:97
	ldr	r0, [r1, r2]
	bics	r0, r3
	str	r0, [r1, r2]
	.loc	4 563 1 epilogue_begin is_stmt 1 @ ../../../../Library/StdDriver/src/clk.c:563:1
	add	sp, #20
	bx	lr
.Ltmp3:
	.p2align	2
@ %bb.1:
	.loc	4 0 1 is_stmt 0                 @ ../../../../Library/StdDriver/src/clk.c:0:1
__arm_cp.1_0:
	.long	1342177796                      @ 0x50000204
.Lcpi_end1:
	.size	__arm_cp.1_0, .Lcpi_end1-__arm_cp.1_0
.Lfunc_end1:
	.size	CLK_DisableModuleClock, .Lfunc_end1-CLK_DisableModuleClock
	.cfi_endproc
	.cantunwind
	.fnend
                                        @ -- End function
	.section	.text.CLK_EnableCKO,"ax",%progbits
	.hidden	CLK_EnableCKO                   @ -- Begin function CLK_EnableCKO
	.globl	CLK_EnableCKO
	.p2align	2
	.type	CLK_EnableCKO,%function
	.code	16                              @ @CLK_EnableCKO
	.thumb_func
CLK_EnableCKO:
.Lfunc_begin2:
	.loc	4 57 0 is_stmt 1                @ ../../../../Library/StdDriver/src/clk.c:57:0
	.fnstart
	.cfi_startproc
@ %bb.0:
	.save	{r7, lr}
	push	{r7, lr}
	.cfi_def_cfa_offset 8
	.cfi_offset lr, -4
	.cfi_offset r7, -8
	.pad	#16
	sub	sp, #16
	.cfi_def_cfa_offset 24
	str	r0, [sp, #12]
	str	r1, [sp, #8]
	str	r2, [sp, #4]
.Ltmp4:
	.loc	4 59 47 prologue_end            @ ../../../../Library/StdDriver/src/clk.c:59:47
	ldr	r0, [sp, #8]
	.loc	4 59 60 is_stmt 0               @ ../../../../Library/StdDriver/src/clk.c:59:60
	ldr	r1, [sp, #4]
	.loc	4 59 75                         @ ../../../../Library/StdDriver/src/clk.c:59:75
	lsls	r1, r1, #5
	.loc	4 59 45                         @ ../../../../Library/StdDriver/src/clk.c:59:45
	orrs	r0, r1
	movs	r1, #16
	.loc	4 59 57                         @ ../../../../Library/StdDriver/src/clk.c:59:57
	orrs	r0, r1
	ldr	r1, __arm_cp.2_0
	.loc	4 59 17                         @ ../../../../Library/StdDriver/src/clk.c:59:17
	str	r0, [r1]
	ldr	r0, __arm_cp.2_1
	.loc	4 62 5 is_stmt 1                @ ../../../../Library/StdDriver/src/clk.c:62:5
	str	r0, [sp]                        @ 4-byte Spill
	bl	CLK_EnableModuleClock
	ldr	r0, [sp]                        @ 4-byte Reload
	.loc	4 65 37                         @ ../../../../Library/StdDriver/src/clk.c:65:37
	ldr	r1, [sp, #12]
	movs	r2, #0
	.loc	4 65 5 is_stmt 0                @ ../../../../Library/StdDriver/src/clk.c:65:5
	bl	CLK_SetModuleClock
	.loc	4 66 1 epilogue_begin is_stmt 1 @ ../../../../Library/StdDriver/src/clk.c:66:1
	add	sp, #16
	pop	{r7, pc}
.Ltmp5:
	.p2align	2
@ %bb.1:
	.loc	4 0 1 is_stmt 0                 @ ../../../../Library/StdDriver/src/clk.c:0:1
__arm_cp.2_0:
	.long	1342177828                      @ 0x50000224
.Lcpi_end2:
	.size	__arm_cp.2_0, .Lcpi_end2-__arm_cp.2_0
__arm_cp.2_1:
	.long	1713373190                      @ 0x66200006
.Lcpi_end3:
	.size	__arm_cp.2_1, .Lcpi_end3-__arm_cp.2_1
.Lfunc_end2:
	.size	CLK_EnableCKO, .Lfunc_end2-CLK_EnableCKO
	.cfi_endproc
	.cantunwind
	.fnend
                                        @ -- End function
	.section	.text.CLK_EnableModuleClock,"ax",%progbits
	.hidden	CLK_EnableModuleClock           @ -- Begin function CLK_EnableModuleClock
	.globl	CLK_EnableModuleClock
	.p2align	2
	.type	CLK_EnableModuleClock,%function
	.code	16                              @ @CLK_EnableModuleClock
	.thumb_func
CLK_EnableModuleClock:
.Lfunc_begin3:
	.loc	4 512 0 is_stmt 1               @ ../../../../Library/StdDriver/src/clk.c:512:0
	.fnstart
	.cfi_startproc
@ %bb.0:
	.pad	#20
	sub	sp, #20
	.cfi_def_cfa_offset 20
	str	r0, [sp, #16]
	movs	r0, #0
.Ltmp6:
	.loc	4 513 14 prologue_end           @ ../../../../Library/StdDriver/src/clk.c:513:14
	str	r0, [sp, #12]
	movs	r1, #44
	str	r1, [sp, #8]
	movs	r1, #4
	str	r1, [sp, #4]
	str	r0, [sp]
	.loc	4 515 105                       @ ../../../../Library/StdDriver/src/clk.c:515:105
	ldr	r0, [sp, #16]
	movs	r2, #31
	mov	r1, r0
	ands	r1, r2
	movs	r3, #1
	.loc	4 515 102 is_stmt 0             @ ../../../../Library/StdDriver/src/clk.c:515:102
	lsls	r3, r1
	.loc	4 515 53                        @ ../../../../Library/StdDriver/src/clk.c:515:53
	lsrs	r0, r0, #30
	lsls	r1, r0, #2
	mov	r0, sp
	ldr	r1, [r0, r1]
	ldr	r2, __arm_cp.3_0
	.loc	4 515 97                        @ ../../../../Library/StdDriver/src/clk.c:515:97
	ldr	r0, [r1, r2]
	orrs	r0, r3
	str	r0, [r1, r2]
	.loc	4 516 1 epilogue_begin is_stmt 1 @ ../../../../Library/StdDriver/src/clk.c:516:1
	add	sp, #20
	bx	lr
.Ltmp7:
	.p2align	2
@ %bb.1:
	.loc	4 0 1 is_stmt 0                 @ ../../../../Library/StdDriver/src/clk.c:0:1
__arm_cp.3_0:
	.long	1342177796                      @ 0x50000204
.Lcpi_end4:
	.size	__arm_cp.3_0, .Lcpi_end4-__arm_cp.3_0
.Lfunc_end3:
	.size	CLK_EnableModuleClock, .Lfunc_end3-CLK_EnableModuleClock
	.cfi_endproc
	.cantunwind
	.fnend
                                        @ -- End function
	.section	.text.CLK_SetModuleClock,"ax",%progbits
	.hidden	CLK_SetModuleClock              @ -- Begin function CLK_SetModuleClock
	.globl	CLK_SetModuleClock
	.p2align	2
	.type	CLK_SetModuleClock,%function
	.code	16                              @ @CLK_SetModuleClock
	.thumb_func
CLK_SetModuleClock:
.Lfunc_begin4:
	.loc	4 393 0 is_stmt 1               @ ../../../../Library/StdDriver/src/clk.c:393:0
	.fnstart
	.cfi_startproc
@ %bb.0:
	.pad	#44
	sub	sp, #44
	.cfi_def_cfa_offset 44
	str	r0, [sp, #40]
	str	r1, [sp, #36]
	str	r2, [sp, #32]
	movs	r0, #0
.Ltmp8:
	.loc	4 394 14 prologue_end           @ ../../../../Library/StdDriver/src/clk.c:394:14
	str	r0, [sp, #28]
	.loc	4 394 26 is_stmt 0              @ ../../../../Library/StdDriver/src/clk.c:394:26
	str	r0, [sp, #24]
	movs	r1, #36
	.loc	4 395 14 is_stmt 1              @ ../../../../Library/StdDriver/src/clk.c:395:14
	str	r1, [sp, #20]
	movs	r1, #12
	str	r1, [sp, #16]
	movs	r1, #4
	str	r1, [sp, #12]
	str	r0, [sp, #8]
	movs	r1, #32
	.loc	4 396 14                        @ ../../../../Library/StdDriver/src/clk.c:396:14
	str	r1, [sp, #4]
	str	r0, [sp]
.Ltmp9:
	.loc	4 398 9                         @ ../../../../Library/StdDriver/src/clk.c:398:9
	ldr	r0, [sp, #40]
	lsls	r0, r0, #4
	lsrs	r0, r0, #29
.Ltmp10:
	.loc	4 398 9 is_stmt 0               @ ../../../../Library/StdDriver/src/clk.c:398:9
	cmp	r0, #0
	beq	.LBB4_13
	b	.LBB4_1
.LBB4_1:
.Ltmp11:
	.loc	4 401 55 is_stmt 1              @ ../../../../Library/StdDriver/src/clk.c:401:55
	ldr	r0, [sp, #40]
	.loc	4 401 45 is_stmt 0              @ ../../../../Library/StdDriver/src/clk.c:401:45
	lsrs	r1, r0, #26
	movs	r0, #12
	ands	r1, r0
	add	r0, sp, #8
	ldr	r0, [r0, r1]
	ldr	r1, __arm_cp.4_0
	.loc	4 401 42                        @ ../../../../Library/StdDriver/src/clk.c:401:42
	adds	r0, r0, r1
	.loc	4 401 16                        @ ../../../../Library/StdDriver/src/clk.c:401:16
	str	r0, [sp, #28]
	.loc	4 403 24 is_stmt 1              @ ../../../../Library/StdDriver/src/clk.c:403:24
	ldr	r0, [sp, #28]
	ldr	r0, [r0]
	.loc	4 403 41 is_stmt 0              @ ../../../../Library/StdDriver/src/clk.c:403:41
	ldr	r2, [sp, #40]
	lsls	r1, r2, #4
	lsrs	r1, r1, #29
	.loc	4 403 76                        @ ../../../../Library/StdDriver/src/clk.c:403:76
	lsls	r2, r2, #7
	lsrs	r2, r2, #27
	.loc	4 403 73                        @ ../../../../Library/StdDriver/src/clk.c:403:73
	lsls	r1, r2
	.loc	4 403 36                        @ ../../../../Library/StdDriver/src/clk.c:403:36
	bics	r0, r1
	.loc	4 403 113                       @ ../../../../Library/StdDriver/src/clk.c:403:113
	ldr	r1, [sp, #36]
	.loc	4 403 111                       @ ../../../../Library/StdDriver/src/clk.c:403:111
	orrs	r0, r1
	.loc	4 403 9                         @ ../../../../Library/StdDriver/src/clk.c:403:9
	ldr	r1, [sp, #28]
	.loc	4 403 21                        @ ../../../../Library/StdDriver/src/clk.c:403:21
	str	r0, [r1]
.Ltmp12:
	.loc	4 406 13 is_stmt 1              @ ../../../../Library/StdDriver/src/clk.c:406:13
	ldr	r0, [sp, #40]
	ldr	r1, __arm_cp.4_1
.Ltmp13:
	.loc	4 406 13 is_stmt 0              @ ../../../../Library/StdDriver/src/clk.c:406:13
	cmp	r0, r1
	bne	.LBB4_3
	b	.LBB4_2
.LBB4_2:
	.loc	4 0 13                          @ ../../../../Library/StdDriver/src/clk.c:0:13
	ldr	r1, __arm_cp.4_5
.Ltmp14:
	.loc	4 407 34 is_stmt 1              @ ../../../../Library/StdDriver/src/clk.c:407:34
	ldr	r0, [r1]
	movs	r2, #1
	lsls	r3, r2, #8
	.loc	4 407 42 is_stmt 0              @ ../../../../Library/StdDriver/src/clk.c:407:42
	bics	r0, r3
	.loc	4 407 77                        @ ../../../../Library/StdDriver/src/clk.c:407:77
	ldr	r2, [sp, #36]
	.loc	4 407 87                        @ ../../../../Library/StdDriver/src/clk.c:407:87
	ands	r2, r3
	.loc	4 407 74                        @ ../../../../Library/StdDriver/src/clk.c:407:74
	adds	r0, r0, r2
	.loc	4 407 26                        @ ../../../../Library/StdDriver/src/clk.c:407:26
	str	r0, [r1]
	.loc	4 407 13                        @ ../../../../Library/StdDriver/src/clk.c:407:13
	b	.LBB4_12
.LBB4_3:
.Ltmp15:
	.loc	4 408 18 is_stmt 1              @ ../../../../Library/StdDriver/src/clk.c:408:18
	ldr	r0, [sp, #40]
	ldr	r1, __arm_cp.4_2
.Ltmp16:
	.loc	4 408 18 is_stmt 0              @ ../../../../Library/StdDriver/src/clk.c:408:18
	cmp	r0, r1
	bne	.LBB4_5
	b	.LBB4_4
.LBB4_4:
	.loc	4 0 18                          @ ../../../../Library/StdDriver/src/clk.c:0:18
	ldr	r1, __arm_cp.4_5
.Ltmp17:
	.loc	4 409 34 is_stmt 1              @ ../../../../Library/StdDriver/src/clk.c:409:34
	ldr	r0, [r1]
	movs	r2, #1
	lsls	r3, r2, #9
	.loc	4 409 42 is_stmt 0              @ ../../../../Library/StdDriver/src/clk.c:409:42
	bics	r0, r3
	.loc	4 409 77                        @ ../../../../Library/StdDriver/src/clk.c:409:77
	ldr	r2, [sp, #36]
	.loc	4 409 87                        @ ../../../../Library/StdDriver/src/clk.c:409:87
	ands	r2, r3
	.loc	4 409 74                        @ ../../../../Library/StdDriver/src/clk.c:409:74
	adds	r0, r0, r2
	.loc	4 409 26                        @ ../../../../Library/StdDriver/src/clk.c:409:26
	str	r0, [r1]
	.loc	4 409 13                        @ ../../../../Library/StdDriver/src/clk.c:409:13
	b	.LBB4_11
.LBB4_5:
.Ltmp18:
	.loc	4 410 18 is_stmt 1              @ ../../../../Library/StdDriver/src/clk.c:410:18
	ldr	r0, [sp, #40]
	ldr	r1, __arm_cp.4_3
.Ltmp19:
	.loc	4 410 18 is_stmt 0              @ ../../../../Library/StdDriver/src/clk.c:410:18
	cmp	r0, r1
	bne	.LBB4_7
	b	.LBB4_6
.LBB4_6:
	.loc	4 0 18                          @ ../../../../Library/StdDriver/src/clk.c:0:18
	ldr	r1, __arm_cp.4_5
.Ltmp20:
	.loc	4 411 34 is_stmt 1              @ ../../../../Library/StdDriver/src/clk.c:411:34
	ldr	r0, [r1]
	movs	r2, #1
	lsls	r3, r2, #10
	.loc	4 411 42 is_stmt 0              @ ../../../../Library/StdDriver/src/clk.c:411:42
	bics	r0, r3
	.loc	4 411 77                        @ ../../../../Library/StdDriver/src/clk.c:411:77
	ldr	r2, [sp, #36]
	.loc	4 411 87                        @ ../../../../Library/StdDriver/src/clk.c:411:87
	ands	r2, r3
	.loc	4 411 74                        @ ../../../../Library/StdDriver/src/clk.c:411:74
	adds	r0, r0, r2
	.loc	4 411 26                        @ ../../../../Library/StdDriver/src/clk.c:411:26
	str	r0, [r1]
	.loc	4 411 13                        @ ../../../../Library/StdDriver/src/clk.c:411:13
	b	.LBB4_10
.LBB4_7:
.Ltmp21:
	.loc	4 412 18 is_stmt 1              @ ../../../../Library/StdDriver/src/clk.c:412:18
	ldr	r0, [sp, #40]
	ldr	r1, __arm_cp.4_4
.Ltmp22:
	.loc	4 412 18 is_stmt 0              @ ../../../../Library/StdDriver/src/clk.c:412:18
	cmp	r0, r1
	bne	.LBB4_9
	b	.LBB4_8
.LBB4_8:
	.loc	4 0 18                          @ ../../../../Library/StdDriver/src/clk.c:0:18
	ldr	r1, __arm_cp.4_5
.Ltmp23:
	.loc	4 413 34 is_stmt 1              @ ../../../../Library/StdDriver/src/clk.c:413:34
	ldr	r0, [r1]
	movs	r2, #1
	lsls	r3, r2, #11
	.loc	4 413 42 is_stmt 0              @ ../../../../Library/StdDriver/src/clk.c:413:42
	bics	r0, r3
	.loc	4 413 77                        @ ../../../../Library/StdDriver/src/clk.c:413:77
	ldr	r2, [sp, #36]
	.loc	4 413 87                        @ ../../../../Library/StdDriver/src/clk.c:413:87
	ands	r2, r3
	.loc	4 413 74                        @ ../../../../Library/StdDriver/src/clk.c:413:74
	adds	r0, r0, r2
	.loc	4 413 26                        @ ../../../../Library/StdDriver/src/clk.c:413:26
	str	r0, [r1]
	.loc	4 413 13                        @ ../../../../Library/StdDriver/src/clk.c:413:13
	b	.LBB4_9
.Ltmp24:
.LBB4_9:
	.loc	4 0 13                          @ ../../../../Library/StdDriver/src/clk.c:0:13
	b	.LBB4_10
.LBB4_10:
	b	.LBB4_11
.LBB4_11:
	b	.LBB4_12
.LBB4_12:
	.loc	4 414 5 is_stmt 1               @ ../../../../Library/StdDriver/src/clk.c:414:5
	b	.LBB4_13
.Ltmp25:
.LBB4_13:
	.loc	4 416 9                         @ ../../../../Library/StdDriver/src/clk.c:416:9
	ldr	r0, [sp, #40]
	lsrs	r0, r0, #10
.Ltmp26:
	.loc	4 416 9 is_stmt 0               @ ../../../../Library/StdDriver/src/clk.c:416:9
	lsls	r0, r0, #24
	cmp	r0, #0
	beq	.LBB4_15
	b	.LBB4_14
.LBB4_14:
	.loc	4 0 9                           @ ../../../../Library/StdDriver/src/clk.c:0:9
	add	r0, sp, #40
.Ltmp27:
	.loc	4 419 54 is_stmt 1              @ ../../../../Library/StdDriver/src/clk.c:419:54
	ldrh	r1, [r0, #2]
	movs	r0, #12
	.loc	4 419 44 is_stmt 0              @ ../../../../Library/StdDriver/src/clk.c:419:44
	ands	r1, r0
	mov	r0, sp
	ldr	r0, [r0, r1]
	ldr	r1, __arm_cp.4_6
	.loc	4 419 41                        @ ../../../../Library/StdDriver/src/clk.c:419:41
	adds	r0, r0, r1
	.loc	4 419 16                        @ ../../../../Library/StdDriver/src/clk.c:419:16
	str	r0, [sp, #24]
	.loc	4 421 24 is_stmt 1              @ ../../../../Library/StdDriver/src/clk.c:421:24
	ldr	r0, [sp, #24]
	ldr	r0, [r0]
	.loc	4 421 41 is_stmt 0              @ ../../../../Library/StdDriver/src/clk.c:421:41
	ldr	r2, [sp, #40]
	lsrs	r1, r2, #10
	uxtb	r1, r1
	.loc	4 421 76                        @ ../../../../Library/StdDriver/src/clk.c:421:76
	lsls	r2, r2, #22
	lsrs	r2, r2, #27
	.loc	4 421 73                        @ ../../../../Library/StdDriver/src/clk.c:421:73
	lsls	r1, r2
	.loc	4 421 36                        @ ../../../../Library/StdDriver/src/clk.c:421:36
	bics	r0, r1
	.loc	4 421 113                       @ ../../../../Library/StdDriver/src/clk.c:421:113
	ldr	r1, [sp, #32]
	.loc	4 421 111                       @ ../../../../Library/StdDriver/src/clk.c:421:111
	orrs	r0, r1
	.loc	4 421 9                         @ ../../../../Library/StdDriver/src/clk.c:421:9
	ldr	r1, [sp, #24]
	.loc	4 421 21                        @ ../../../../Library/StdDriver/src/clk.c:421:21
	str	r0, [r1]
	.loc	4 422 5 is_stmt 1               @ ../../../../Library/StdDriver/src/clk.c:422:5
	b	.LBB4_15
.Ltmp28:
.LBB4_15:
	.loc	4 423 1 epilogue_begin          @ ../../../../Library/StdDriver/src/clk.c:423:1
	add	sp, #44
	bx	lr
.Ltmp29:
	.p2align	2
@ %bb.16:
	.loc	4 0 1 is_stmt 0                 @ ../../../../Library/StdDriver/src/clk.c:0:1
__arm_cp.4_0:
	.long	1342177808                      @ 0x50000210
.Lcpi_end5:
	.size	__arm_cp.4_0, .Lcpi_end5-__arm_cp.4_0
__arm_cp.4_1:
	.long	1472200724                      @ 0x57c00014
.Lcpi_end6:
	.size	__arm_cp.4_1, .Lcpi_end6-__arm_cp.4_1
__arm_cp.4_2:
	.long	1474297877                      @ 0x57e00015
.Lcpi_end7:
	.size	__arm_cp.4_2, .Lcpi_end7-__arm_cp.4_2
__arm_cp.4_3:
	.long	1715470358                      @ 0x66400016
.Lcpi_end8:
	.size	__arm_cp.4_3, .Lcpi_end8-__arm_cp.4_3
__arm_cp.4_4:
	.long	1717567511                      @ 0x66600017
.Lcpi_end9:
	.size	__arm_cp.4_4, .Lcpi_end9-__arm_cp.4_4
__arm_cp.4_5:
	.long	1342177820                      @ 0x5000021c
.Lcpi_end10:
	.size	__arm_cp.4_5, .Lcpi_end10-__arm_cp.4_5
__arm_cp.4_6:
	.long	1342177816                      @ 0x50000218
.Lcpi_end11:
	.size	__arm_cp.4_6, .Lcpi_end11-__arm_cp.4_6
.Lfunc_end4:
	.size	CLK_SetModuleClock, .Lfunc_end4-CLK_SetModuleClock
	.cfi_endproc
	.cantunwind
	.fnend
                                        @ -- End function
	.section	.text.CLK_PowerDown,"ax",%progbits
	.hidden	CLK_PowerDown                   @ -- Begin function CLK_PowerDown
	.globl	CLK_PowerDown
	.p2align	2
	.type	CLK_PowerDown,%function
	.code	16                              @ @CLK_PowerDown
	.thumb_func
CLK_PowerDown:
.Lfunc_begin5:
	.loc	4 75 0 is_stmt 1                @ ../../../../Library/StdDriver/src/clk.c:75:0
	.fnstart
	.cfi_startproc
@ %bb.0:
	ldr	r1, __arm_cp.5_0
.Ltmp30:
	.loc	4 77 14 prologue_end            @ ../../../../Library/StdDriver/src/clk.c:77:14
	ldr	r0, [r1]
	movs	r2, #4
	orrs	r0, r2
	str	r0, [r1]
	ldr	r1, __arm_cp.5_1
	.loc	4 80 17                         @ ../../../../Library/StdDriver/src/clk.c:80:17
	ldr	r0, [r1]
	movs	r2, #3
	lsls	r2, r2, #7
	orrs	r0, r2
	str	r0, [r1]
.Ltmp31:
	.file	5 "C:\\Users\\nguye\\Desktop\\crc\\SampleCode\\ExampleCode\\NUC240_Software_CRC\\KEIL" "../../../../Library/CMSIS/Include\\core_cmInstr.h"
	.loc	5 303 3                         @ ../../../../Library/CMSIS/Include\core_cmInstr.h:303:3
	@APP
	wfi
	@NO_APP
.Ltmp32:
	.loc	4 84 1                          @ ../../../../Library/StdDriver/src/clk.c:84:1
	bx	lr
.Ltmp33:
	.p2align	2
@ %bb.1:
	.loc	4 0 1 is_stmt 0                 @ ../../../../Library/StdDriver/src/clk.c:0:1
__arm_cp.5_0:
	.long	3758157072                      @ 0xe000ed10
.Lcpi_end12:
	.size	__arm_cp.5_0, .Lcpi_end12-__arm_cp.5_0
__arm_cp.5_1:
	.long	1342177792                      @ 0x50000200
.Lcpi_end13:
	.size	__arm_cp.5_1, .Lcpi_end13-__arm_cp.5_1
.Lfunc_end5:
	.size	CLK_PowerDown, .Lfunc_end5-CLK_PowerDown
	.cfi_endproc
	.cantunwind
	.fnend
                                        @ -- End function
	.section	.text.CLK_Idle,"ax",%progbits
	.hidden	CLK_Idle                        @ -- Begin function CLK_Idle
	.globl	CLK_Idle
	.p2align	2
	.type	CLK_Idle,%function
	.code	16                              @ @CLK_Idle
	.thumb_func
CLK_Idle:
.Lfunc_begin6:
	.loc	4 93 0 is_stmt 1                @ ../../../../Library/StdDriver/src/clk.c:93:0
	.fnstart
	.cfi_startproc
@ %bb.0:
	ldr	r1, __arm_cp.6_0
.Ltmp34:
	.loc	4 95 14 prologue_end            @ ../../../../Library/StdDriver/src/clk.c:95:14
	ldr	r0, [r1]
	movs	r2, #4
	bics	r0, r2
	str	r0, [r1]
	ldr	r1, __arm_cp.6_1
	.loc	4 98 17                         @ ../../../../Library/StdDriver/src/clk.c:98:17
	ldr	r0, [r1]
	movs	r2, #128
	bics	r0, r2
	str	r0, [r1]
.Ltmp35:
	.loc	5 303 3                         @ ../../../../Library/CMSIS/Include\core_cmInstr.h:303:3
	@APP
	wfi
	@NO_APP
.Ltmp36:
	.loc	4 102 1                         @ ../../../../Library/StdDriver/src/clk.c:102:1
	bx	lr
.Ltmp37:
	.p2align	2
@ %bb.1:
	.loc	4 0 1 is_stmt 0                 @ ../../../../Library/StdDriver/src/clk.c:0:1
__arm_cp.6_0:
	.long	3758157072                      @ 0xe000ed10
.Lcpi_end14:
	.size	__arm_cp.6_0, .Lcpi_end14-__arm_cp.6_0
__arm_cp.6_1:
	.long	1342177792                      @ 0x50000200
.Lcpi_end15:
	.size	__arm_cp.6_1, .Lcpi_end15-__arm_cp.6_1
.Lfunc_end6:
	.size	CLK_Idle, .Lfunc_end6-CLK_Idle
	.cfi_endproc
	.cantunwind
	.fnend
                                        @ -- End function
	.section	.text.CLK_GetHXTFreq,"ax",%progbits
	.hidden	CLK_GetHXTFreq                  @ -- Begin function CLK_GetHXTFreq
	.globl	CLK_GetHXTFreq
	.p2align	2
	.type	CLK_GetHXTFreq,%function
	.code	16                              @ @CLK_GetHXTFreq
	.thumb_func
CLK_GetHXTFreq:
.Lfunc_begin7:
	.loc	4 111 0 is_stmt 1               @ ../../../../Library/StdDriver/src/clk.c:111:0
	.fnstart
	.cfi_startproc
@ %bb.0:
	.pad	#4
	sub	sp, #4
	.cfi_def_cfa_offset 4
	ldr	r0, __arm_cp.7_0
.Ltmp38:
	.loc	4 112 14 prologue_end           @ ../../../../Library/StdDriver/src/clk.c:112:14
	ldr	r0, [r0]
.Ltmp39:
	.loc	4 112 9 is_stmt 0               @ ../../../../Library/StdDriver/src/clk.c:112:9
	lsls	r0, r0, #31
	cmp	r0, #0
	beq	.LBB7_2
	b	.LBB7_1
.LBB7_1:
	.loc	4 0 9                           @ ../../../../Library/StdDriver/src/clk.c:0:9
	ldr	r0, __arm_cp.7_1
.Ltmp40:
	.loc	4 113 9 is_stmt 1               @ ../../../../Library/StdDriver/src/clk.c:113:9
	str	r0, [sp]
	b	.LBB7_3
.LBB7_2:
	.loc	4 0 9 is_stmt 0                 @ ../../../../Library/StdDriver/src/clk.c:0:9
	movs	r0, #0
	.loc	4 115 9 is_stmt 1               @ ../../../../Library/StdDriver/src/clk.c:115:9
	str	r0, [sp]
	b	.LBB7_3
.Ltmp41:
.LBB7_3:
	.loc	4 116 1                         @ ../../../../Library/StdDriver/src/clk.c:116:1
	ldr	r0, [sp]
	.loc	4 116 1 epilogue_begin is_stmt 0 @ ../../../../Library/StdDriver/src/clk.c:116:1
	add	sp, #4
	bx	lr
.Ltmp42:
	.p2align	2
@ %bb.4:
	.loc	4 0 1                           @ ../../../../Library/StdDriver/src/clk.c:0:1
__arm_cp.7_0:
	.long	1342177792                      @ 0x50000200
.Lcpi_end16:
	.size	__arm_cp.7_0, .Lcpi_end16-__arm_cp.7_0
__arm_cp.7_1:
	.long	12000000                        @ 0xb71b00
.Lcpi_end17:
	.size	__arm_cp.7_1, .Lcpi_end17-__arm_cp.7_1
.Lfunc_end7:
	.size	CLK_GetHXTFreq, .Lfunc_end7-CLK_GetHXTFreq
	.cfi_endproc
	.cantunwind
	.fnend
                                        @ -- End function
	.section	.text.CLK_GetLXTFreq,"ax",%progbits
	.hidden	CLK_GetLXTFreq                  @ -- Begin function CLK_GetLXTFreq
	.globl	CLK_GetLXTFreq
	.p2align	2
	.type	CLK_GetLXTFreq,%function
	.code	16                              @ @CLK_GetLXTFreq
	.thumb_func
CLK_GetLXTFreq:
.Lfunc_begin8:
	.loc	4 125 0 is_stmt 1               @ ../../../../Library/StdDriver/src/clk.c:125:0
	.fnstart
	.cfi_startproc
@ %bb.0:
	.pad	#4
	sub	sp, #4
	.cfi_def_cfa_offset 4
	ldr	r0, __arm_cp.8_0
.Ltmp43:
	.loc	4 126 14 prologue_end           @ ../../../../Library/StdDriver/src/clk.c:126:14
	ldr	r0, [r0]
.Ltmp44:
	.loc	4 126 9 is_stmt 0               @ ../../../../Library/StdDriver/src/clk.c:126:9
	lsls	r0, r0, #30
	cmp	r0, #0
	bpl	.LBB8_2
	b	.LBB8_1
.LBB8_1:
	.loc	4 0 9                           @ ../../../../Library/StdDriver/src/clk.c:0:9
	movs	r0, #1
	lsls	r0, r0, #15
.Ltmp45:
	.loc	4 127 9 is_stmt 1               @ ../../../../Library/StdDriver/src/clk.c:127:9
	str	r0, [sp]
	b	.LBB8_3
.LBB8_2:
	.loc	4 0 9 is_stmt 0                 @ ../../../../Library/StdDriver/src/clk.c:0:9
	movs	r0, #0
	.loc	4 129 9 is_stmt 1               @ ../../../../Library/StdDriver/src/clk.c:129:9
	str	r0, [sp]
	b	.LBB8_3
.Ltmp46:
.LBB8_3:
	.loc	4 130 1                         @ ../../../../Library/StdDriver/src/clk.c:130:1
	ldr	r0, [sp]
	.loc	4 130 1 epilogue_begin is_stmt 0 @ ../../../../Library/StdDriver/src/clk.c:130:1
	add	sp, #4
	bx	lr
.Ltmp47:
	.p2align	2
@ %bb.4:
	.loc	4 0 1                           @ ../../../../Library/StdDriver/src/clk.c:0:1
__arm_cp.8_0:
	.long	1342177792                      @ 0x50000200
.Lcpi_end18:
	.size	__arm_cp.8_0, .Lcpi_end18-__arm_cp.8_0
.Lfunc_end8:
	.size	CLK_GetLXTFreq, .Lfunc_end8-CLK_GetLXTFreq
	.cfi_endproc
	.cantunwind
	.fnend
                                        @ -- End function
	.section	.text.CLK_GetHCLKFreq,"ax",%progbits
	.hidden	CLK_GetHCLKFreq                 @ -- Begin function CLK_GetHCLKFreq
	.globl	CLK_GetHCLKFreq
	.p2align	2
	.type	CLK_GetHCLKFreq,%function
	.code	16                              @ @CLK_GetHCLKFreq
	.thumb_func
CLK_GetHCLKFreq:
.Lfunc_begin9:
	.loc	4 139 0 is_stmt 1               @ ../../../../Library/StdDriver/src/clk.c:139:0
	.fnstart
	.cfi_startproc
@ %bb.0:
	.save	{r7, lr}
	push	{r7, lr}
	.cfi_def_cfa_offset 8
	.cfi_offset lr, -4
	.cfi_offset r7, -8
.Ltmp48:
	.loc	4 140 5 prologue_end            @ ../../../../Library/StdDriver/src/clk.c:140:5
	bl	SystemCoreClockUpdate
	.loc	4 141 12                        @ ../../../../Library/StdDriver/src/clk.c:141:12
	ldr	r0, __arm_cp.9_0
	ldr	r0, [r0]
	.loc	4 141 5 epilogue_begin is_stmt 0 @ ../../../../Library/StdDriver/src/clk.c:141:5
	pop	{r7, pc}
.Ltmp49:
	.p2align	2
@ %bb.1:
	.loc	4 0 5                           @ ../../../../Library/StdDriver/src/clk.c:0:5
__arm_cp.9_0:
	.long	SystemCoreClock
.Lcpi_end19:
	.size	__arm_cp.9_0, .Lcpi_end19-__arm_cp.9_0
.Lfunc_end9:
	.size	CLK_GetHCLKFreq, .Lfunc_end9-CLK_GetHCLKFreq
	.cfi_endproc
	.cantunwind
	.fnend
                                        @ -- End function
	.section	.text.CLK_GetCPUFreq,"ax",%progbits
	.hidden	CLK_GetCPUFreq                  @ -- Begin function CLK_GetCPUFreq
	.globl	CLK_GetCPUFreq
	.p2align	2
	.type	CLK_GetCPUFreq,%function
	.code	16                              @ @CLK_GetCPUFreq
	.thumb_func
CLK_GetCPUFreq:
.Lfunc_begin10:
	.loc	4 151 0 is_stmt 1               @ ../../../../Library/StdDriver/src/clk.c:151:0
	.fnstart
	.cfi_startproc
@ %bb.0:
	.save	{r7, lr}
	push	{r7, lr}
	.cfi_def_cfa_offset 8
	.cfi_offset lr, -4
	.cfi_offset r7, -8
.Ltmp50:
	.loc	4 152 5 prologue_end            @ ../../../../Library/StdDriver/src/clk.c:152:5
	bl	SystemCoreClockUpdate
	.loc	4 153 12                        @ ../../../../Library/StdDriver/src/clk.c:153:12
	ldr	r0, __arm_cp.10_0
	ldr	r0, [r0]
	.loc	4 153 5 epilogue_begin is_stmt 0 @ ../../../../Library/StdDriver/src/clk.c:153:5
	pop	{r7, pc}
.Ltmp51:
	.p2align	2
@ %bb.1:
	.loc	4 0 5                           @ ../../../../Library/StdDriver/src/clk.c:0:5
__arm_cp.10_0:
	.long	SystemCoreClock
.Lcpi_end20:
	.size	__arm_cp.10_0, .Lcpi_end20-__arm_cp.10_0
.Lfunc_end10:
	.size	CLK_GetCPUFreq, .Lfunc_end10-CLK_GetCPUFreq
	.cfi_endproc
	.cantunwind
	.fnend
                                        @ -- End function
	.section	.text.CLK_GetPCLKFreq,"ax",%progbits
	.hidden	CLK_GetPCLKFreq                 @ -- Begin function CLK_GetPCLKFreq
	.globl	CLK_GetPCLKFreq
	.p2align	2
	.type	CLK_GetPCLKFreq,%function
	.code	16                              @ @CLK_GetPCLKFreq
	.thumb_func
CLK_GetPCLKFreq:
.Lfunc_begin11:
	.loc	4 163 0 is_stmt 1               @ ../../../../Library/StdDriver/src/clk.c:163:0
	.fnstart
	.cfi_startproc
@ %bb.0:
	.save	{r7, lr}
	push	{r7, lr}
	.cfi_def_cfa_offset 8
	.cfi_offset lr, -4
	.cfi_offset r7, -8
.Ltmp52:
	.loc	4 164 5 prologue_end            @ ../../../../Library/StdDriver/src/clk.c:164:5
	bl	SystemCoreClockUpdate
	.loc	4 165 12                        @ ../../../../Library/StdDriver/src/clk.c:165:12
	ldr	r0, __arm_cp.11_0
	ldr	r0, [r0]
	.loc	4 165 5 epilogue_begin is_stmt 0 @ ../../../../Library/StdDriver/src/clk.c:165:5
	pop	{r7, pc}
.Ltmp53:
	.p2align	2
@ %bb.1:
	.loc	4 0 5                           @ ../../../../Library/StdDriver/src/clk.c:0:5
__arm_cp.11_0:
	.long	SystemCoreClock
.Lcpi_end21:
	.size	__arm_cp.11_0, .Lcpi_end21-__arm_cp.11_0
.Lfunc_end11:
	.size	CLK_GetPCLKFreq, .Lfunc_end11-CLK_GetPCLKFreq
	.cfi_endproc
	.cantunwind
	.fnend
                                        @ -- End function
	.section	.text.CLK_SetCoreClock,"ax",%progbits
	.hidden	CLK_SetCoreClock                @ -- Begin function CLK_SetCoreClock
	.globl	CLK_SetCoreClock
	.p2align	2
	.type	CLK_SetCoreClock,%function
	.code	16                              @ @CLK_SetCoreClock
	.thumb_func
CLK_SetCoreClock:
.Lfunc_begin12:
	.loc	4 176 0 is_stmt 1               @ ../../../../Library/StdDriver/src/clk.c:176:0
	.fnstart
	.cfi_startproc
@ %bb.0:
	.save	{r7, lr}
	push	{r7, lr}
	.cfi_def_cfa_offset 8
	.cfi_offset lr, -4
	.cfi_offset r7, -8
	.pad	#16
	sub	sp, #16
	.cfi_def_cfa_offset 24
	str	r0, [sp, #12]
	ldr	r0, __arm_cp.12_0
.Ltmp54:
	.loc	4 181 23 prologue_end           @ ../../../../Library/StdDriver/src/clk.c:181:23
	ldr	r0, [r0]
	movs	r1, #16
	.loc	4 181 33 is_stmt 0              @ ../../../../Library/StdDriver/src/clk.c:181:33
	ands	r0, r1
	.loc	4 181 16                        @ ../../../../Library/StdDriver/src/clk.c:181:16
	str	r0, [sp]
.Ltmp55:
	.loc	4 184 9 is_stmt 1               @ ../../../../Library/StdDriver/src/clk.c:184:9
	ldr	r0, [sp, #12]
	ldr	r1, __arm_cp.12_1
.Ltmp56:
	.loc	4 184 9 is_stmt 0               @ ../../../../Library/StdDriver/src/clk.c:184:9
	cmp	r0, r1
	blo	.LBB12_2
	b	.LBB12_1
.LBB12_1:
	.loc	4 0 9                           @ ../../../../Library/StdDriver/src/clk.c:0:9
	ldr	r0, __arm_cp.12_2
.Ltmp57:
	.loc	4 185 17 is_stmt 1              @ ../../../../Library/StdDriver/src/clk.c:185:17
	str	r0, [sp, #12]
	.loc	4 185 9 is_stmt 0               @ ../../../../Library/StdDriver/src/clk.c:185:9
	b	.LBB12_2
.Ltmp58:
.LBB12_2:
	.loc	4 187 9 is_stmt 1               @ ../../../../Library/StdDriver/src/clk.c:187:9
	ldr	r0, [sp, #12]
	ldr	r1, __arm_cp.12_3
.Ltmp59:
	.loc	4 187 9 is_stmt 0               @ ../../../../Library/StdDriver/src/clk.c:187:9
	cmp	r0, r1
	bhi	.LBB12_4
	b	.LBB12_3
.LBB12_3:
	.loc	4 0 9                           @ ../../../../Library/StdDriver/src/clk.c:0:9
	ldr	r0, __arm_cp.12_4
.Ltmp60:
	.loc	4 188 17 is_stmt 1              @ ../../../../Library/StdDriver/src/clk.c:188:17
	str	r0, [sp, #12]
	.loc	4 188 9 is_stmt 0               @ ../../../../Library/StdDriver/src/clk.c:188:9
	b	.LBB12_4
.Ltmp61:
.LBB12_4:
	.loc	4 0 9                           @ ../../../../Library/StdDriver/src/clk.c:0:9
	movs	r0, #1
	.loc	4 191 12 is_stmt 1              @ ../../../../Library/StdDriver/src/clk.c:191:12
	str	r0, [sp, #4]
.Ltmp62:
	.loc	4 194 9                         @ ../../../../Library/StdDriver/src/clk.c:194:9
	ldr	r0, [sp, #12]
	ldr	r1, __arm_cp.12_5
.Ltmp63:
	.loc	4 194 9 is_stmt 0               @ ../../../../Library/StdDriver/src/clk.c:194:9
	cmp	r0, r1
	blo	.LBB12_6
	b	.LBB12_5
.LBB12_5:
	.loc	4 0 9                           @ ../../../../Library/StdDriver/src/clk.c:0:9
	movs	r0, #80
.Ltmp64:
	.loc	4 195 19 is_stmt 1              @ ../../../../Library/StdDriver/src/clk.c:195:19
	str	r0, [sp, #8]
	.loc	4 195 9 is_stmt 0               @ ../../../../Library/StdDriver/src/clk.c:195:9
	b	.LBB12_7
.LBB12_6:
	.loc	4 0 9                           @ ../../../../Library/StdDriver/src/clk.c:0:9
	movs	r0, #0
	.loc	4 197 19 is_stmt 1              @ ../../../../Library/StdDriver/src/clk.c:197:19
	str	r0, [sp, #8]
	b	.LBB12_7
.Ltmp65:
.LBB12_7:
	.loc	4 0 19 is_stmt 0                @ ../../../../Library/StdDriver/src/clk.c:0:19
	ldr	r1, __arm_cp.12_6
	.loc	4 200 25 is_stmt 1              @ ../../../../Library/StdDriver/src/clk.c:200:25
	ldr	r0, [r1]
	movs	r2, #80
	.loc	4 200 47 is_stmt 0              @ ../../../../Library/StdDriver/src/clk.c:200:47
	orrs	r0, r2
	.loc	4 200 17                        @ ../../../../Library/StdDriver/src/clk.c:200:17
	str	r0, [r1]
	ldr	r1, __arm_cp.12_7
	.loc	4 203 17 is_stmt 1              @ ../../../../Library/StdDriver/src/clk.c:203:17
	ldr	r0, [r1]
	movs	r2, #4
	orrs	r0, r2
	str	r0, [r1]
	.loc	4 205 5                         @ ../../../../Library/StdDriver/src/clk.c:205:5
	b	.LBB12_8
.LBB12_8:                               @ =>This Inner Loop Header: Depth=1
	.loc	4 0 5 is_stmt 0                 @ ../../../../Library/StdDriver/src/clk.c:0:5
	ldr	r0, __arm_cp.12_0
	.loc	4 205 18                        @ ../../../../Library/StdDriver/src/clk.c:205:18
	ldr	r0, [r0]
	.loc	4 205 5                         @ ../../../../Library/StdDriver/src/clk.c:205:5
	lsls	r0, r0, #27
	cmp	r0, #0
	bmi	.LBB12_10
	b	.LBB12_9
.LBB12_9:                               @   in Loop: Header=BB12_8 Depth=1
	b	.LBB12_8
.LBB12_10:
	.loc	4 0 5                           @ ../../../../Library/StdDriver/src/clk.c:0:5
	ldr	r1, __arm_cp.12_8
	.loc	4 207 26 is_stmt 1              @ ../../../../Library/StdDriver/src/clk.c:207:26
	ldr	r0, [r1]
	movs	r2, #7
	.loc	4 207 63 is_stmt 0              @ ../../../../Library/StdDriver/src/clk.c:207:63
	orrs	r0, r2
	.loc	4 207 18                        @ ../../../../Library/StdDriver/src/clk.c:207:18
	str	r0, [r1]
	ldr	r1, __arm_cp.12_9
	.loc	4 210 17 is_stmt 1              @ ../../../../Library/StdDriver/src/clk.c:210:17
	ldr	r0, [r1]
	movs	r2, #1
	lsls	r2, r2, #16
	orrs	r0, r2
	str	r0, [r1]
	ldr	r0, __arm_cp.12_0
.Ltmp66:
	.loc	4 213 14                        @ ../../../../Library/StdDriver/src/clk.c:213:14
	ldr	r0, [r0]
.Ltmp67:
	.loc	4 213 9 is_stmt 0               @ ../../../../Library/StdDriver/src/clk.c:213:9
	lsls	r0, r0, #31
	cmp	r0, #0
	beq	.LBB12_15
	b	.LBB12_11
.LBB12_11:
.Ltmp68:
	.loc	4 215 13 is_stmt 1              @ ../../../../Library/StdDriver/src/clk.c:215:13
	ldr	r0, [sp, #12]
	ldr	r1, __arm_cp.12_2
.Ltmp69:
	.loc	4 215 13 is_stmt 0              @ ../../../../Library/StdDriver/src/clk.c:215:13
	cmp	r0, r1
	bne	.LBB12_13
	b	.LBB12_12
.LBB12_12:
.Ltmp70:
	.loc	4 218 61 is_stmt 1              @ ../../../../Library/StdDriver/src/clk.c:218:61
	ldr	r0, [sp, #12]
	.loc	4 218 69 is_stmt 0              @ ../../../../Library/StdDriver/src/clk.c:218:69
	lsls	r1, r0, #1
	movs	r0, #0
	.loc	4 218 23                        @ ../../../../Library/StdDriver/src/clk.c:218:23
	bl	CLK_EnablePLL
	.loc	4 218 21                        @ ../../../../Library/StdDriver/src/clk.c:218:21
	str	r0, [sp, #12]
	movs	r0, #2
	.loc	4 219 20 is_stmt 1              @ ../../../../Library/StdDriver/src/clk.c:219:20
	str	r0, [sp, #4]
	.loc	4 220 9                         @ ../../../../Library/StdDriver/src/clk.c:220:9
	b	.LBB12_14
.Ltmp71:
.LBB12_13:
	.loc	4 222 61                        @ ../../../../Library/StdDriver/src/clk.c:222:61
	ldr	r1, [sp, #12]
	movs	r0, #0
	.loc	4 222 23 is_stmt 0              @ ../../../../Library/StdDriver/src/clk.c:222:23
	bl	CLK_EnablePLL
	.loc	4 222 21                        @ ../../../../Library/StdDriver/src/clk.c:222:21
	str	r0, [sp, #12]
	b	.LBB12_14
.Ltmp72:
.LBB12_14:
	.loc	4 223 5 is_stmt 1               @ ../../../../Library/StdDriver/src/clk.c:223:5
	b	.LBB12_16
.Ltmp73:
.LBB12_15:
	.loc	4 228 58                        @ ../../../../Library/StdDriver/src/clk.c:228:58
	ldr	r1, [sp, #12]
	movs	r0, #1
	lsls	r0, r0, #19
	.loc	4 228 19 is_stmt 0              @ ../../../../Library/StdDriver/src/clk.c:228:19
	bl	CLK_EnablePLL
	.loc	4 228 17                        @ ../../../../Library/StdDriver/src/clk.c:228:17
	str	r0, [sp, #12]
	ldr	r0, __arm_cp.12_0
	.loc	4 231 27 is_stmt 1              @ ../../../../Library/StdDriver/src/clk.c:231:27
	ldr	r0, [r0]
	movs	r1, #16
	.loc	4 231 37 is_stmt 0              @ ../../../../Library/StdDriver/src/clk.c:231:37
	ands	r0, r1
	.loc	4 231 20                        @ ../../../../Library/StdDriver/src/clk.c:231:20
	str	r0, [sp]
	b	.LBB12_16
.Ltmp74:
.LBB12_16:
	.loc	4 0 20                          @ ../../../../Library/StdDriver/src/clk.c:0:20
	ldr	r1, __arm_cp.12_6
	.loc	4 235 25 is_stmt 1              @ ../../../../Library/StdDriver/src/clk.c:235:25
	ldr	r0, [r1]
	movs	r2, #80
	.loc	4 235 32 is_stmt 0              @ ../../../../Library/StdDriver/src/clk.c:235:32
	bics	r0, r2
	.loc	4 235 49                        @ ../../../../Library/StdDriver/src/clk.c:235:49
	ldr	r2, [sp, #8]
	.loc	4 235 47                        @ ../../../../Library/StdDriver/src/clk.c:235:47
	orrs	r0, r2
	.loc	4 235 17                        @ ../../../../Library/StdDriver/src/clk.c:235:17
	str	r0, [r1]
	.loc	4 237 41 is_stmt 1              @ ../../../../Library/StdDriver/src/clk.c:237:41
	ldr	r0, [sp, #4]
	subs	r1, r0, #1
	movs	r0, #2
	.loc	4 237 5 is_stmt 0               @ ../../../../Library/StdDriver/src/clk.c:237:5
	bl	CLK_SetHCLK
.Ltmp75:
	.loc	4 240 9 is_stmt 1               @ ../../../../Library/StdDriver/src/clk.c:240:9
	ldr	r0, [sp]
.Ltmp76:
	.loc	4 240 9 is_stmt 0               @ ../../../../Library/StdDriver/src/clk.c:240:9
	cmp	r0, #0
	bne	.LBB12_18
	b	.LBB12_17
.LBB12_17:
	.loc	4 0 9                           @ ../../../../Library/StdDriver/src/clk.c:0:9
	ldr	r1, __arm_cp.12_7
.Ltmp77:
	.loc	4 241 21 is_stmt 1              @ ../../../../Library/StdDriver/src/clk.c:241:21
	ldr	r0, [r1]
	movs	r2, #4
	bics	r0, r2
	str	r0, [r1]
	.loc	4 241 9 is_stmt 0               @ ../../../../Library/StdDriver/src/clk.c:241:9
	b	.LBB12_18
.Ltmp78:
.LBB12_18:
	.loc	4 243 12 is_stmt 1              @ ../../../../Library/StdDriver/src/clk.c:243:12
	ldr	r0, [sp, #12]
	.loc	4 243 22 is_stmt 0              @ ../../../../Library/StdDriver/src/clk.c:243:22
	ldr	r1, [sp, #4]
	.loc	4 243 20                        @ ../../../../Library/StdDriver/src/clk.c:243:20
	bl	__aeabi_uidiv
	.loc	4 243 5 epilogue_begin          @ ../../../../Library/StdDriver/src/clk.c:243:5
	add	sp, #16
	pop	{r7, pc}
.Ltmp79:
	.p2align	2
@ %bb.19:
	.loc	4 0 5                           @ ../../../../Library/StdDriver/src/clk.c:0:5
__arm_cp.12_0:
	.long	1342177804                      @ 0x5000020c
.Lcpi_end22:
	.size	__arm_cp.12_0, .Lcpi_end22-__arm_cp.12_0
__arm_cp.12_1:
	.long	72000001                        @ 0x44aa201
.Lcpi_end23:
	.size	__arm_cp.12_1, .Lcpi_end23-__arm_cp.12_1
__arm_cp.12_2:
	.long	72000000                        @ 0x44aa200
.Lcpi_end24:
	.size	__arm_cp.12_2, .Lcpi_end24-__arm_cp.12_2
__arm_cp.12_3:
	.long	24999999                        @ 0x17d783f
.Lcpi_end25:
	.size	__arm_cp.12_3, .Lcpi_end25-__arm_cp.12_3
__arm_cp.12_4:
	.long	25000000                        @ 0x17d7840
.Lcpi_end26:
	.size	__arm_cp.12_4, .Lcpi_end26-__arm_cp.12_4
__arm_cp.12_5:
	.long	50000001                        @ 0x2faf081
.Lcpi_end27:
	.size	__arm_cp.12_5, .Lcpi_end27-__arm_cp.12_5
__arm_cp.12_6:
	.long	1342226456                      @ 0x5000c018
.Lcpi_end28:
	.size	__arm_cp.12_6, .Lcpi_end28-__arm_cp.12_6
__arm_cp.12_7:
	.long	1342177792                      @ 0x50000200
.Lcpi_end29:
	.size	__arm_cp.12_7, .Lcpi_end29-__arm_cp.12_7
__arm_cp.12_8:
	.long	1342177808                      @ 0x50000210
.Lcpi_end30:
	.size	__arm_cp.12_8, .Lcpi_end30-__arm_cp.12_8
__arm_cp.12_9:
	.long	1342177824                      @ 0x50000220
.Lcpi_end31:
	.size	__arm_cp.12_9, .Lcpi_end31-__arm_cp.12_9
.Lfunc_end12:
	.size	CLK_SetCoreClock, .Lfunc_end12-CLK_SetCoreClock
	.cfi_endproc
	.cantunwind
	.fnend
                                        @ -- End function
	.section	.text.CLK_EnablePLL,"ax",%progbits
	.hidden	CLK_EnablePLL                   @ -- Begin function CLK_EnablePLL
	.globl	CLK_EnablePLL
	.p2align	2
	.type	CLK_EnablePLL,%function
	.code	16                              @ @CLK_EnablePLL
	.thumb_func
CLK_EnablePLL:
.Lfunc_begin13:
	.loc	4 577 0 is_stmt 1               @ ../../../../Library/StdDriver/src/clk.c:577:0
	.fnstart
	.cfi_startproc
@ %bb.0:
	.save	{r7, lr}
	push	{r7, lr}
	.cfi_def_cfa_offset 8
	.cfi_offset lr, -4
	.cfi_offset r7, -8
	.pad	#64
	sub	sp, #64
	.cfi_def_cfa_offset 72
	str	r0, [sp, #56]
	str	r1, [sp, #52]
	movs	r0, #1
	lsls	r0, r0, #16
	ldr	r1, __arm_cp.13_0
.Ltmp80:
	.loc	4 582 17 prologue_end           @ ../../../../Library/StdDriver/src/clk.c:582:17
	str	r0, [r1]
.Ltmp81:
	.loc	4 585 9                         @ ../../../../Library/StdDriver/src/clk.c:585:9
	ldr	r0, [sp, #56]
.Ltmp82:
	.loc	4 585 9 is_stmt 0               @ ../../../../Library/StdDriver/src/clk.c:585:9
	cmp	r0, #0
	bne	.LBB13_2
	b	.LBB13_1
.LBB13_1:
	.loc	4 0 9                           @ ../../../../Library/StdDriver/src/clk.c:0:9
	ldr	r2, __arm_cp.13_1
.Ltmp83:
	.loc	4 588 21 is_stmt 1              @ ../../../../Library/StdDriver/src/clk.c:588:21
	ldr	r1, [r2]
	movs	r0, #1
	orrs	r1, r0
	str	r1, [r2]
	.loc	4 591 9                         @ ../../../../Library/StdDriver/src/clk.c:591:9
	bl	CLK_WaitClockReady
	movs	r0, #0
	.loc	4 594 20                        @ ../../../../Library/StdDriver/src/clk.c:594:20
	str	r0, [sp, #32]
	ldr	r0, __arm_cp.13_3
	.loc	4 595 22                        @ ../../../../Library/StdDriver/src/clk.c:595:22
	str	r0, [sp, #48]
	movs	r0, #2
	.loc	4 598 15                        @ ../../../../Library/StdDriver/src/clk.c:598:15
	str	r0, [sp, #44]
	.loc	4 599 5                         @ ../../../../Library/StdDriver/src/clk.c:599:5
	b	.LBB13_3
.Ltmp84:
.LBB13_2:
	.loc	4 0 5 is_stmt 0                 @ ../../../../Library/StdDriver/src/clk.c:0:5
	ldr	r1, __arm_cp.13_1
.Ltmp85:
	.loc	4 605 21 is_stmt 1              @ ../../../../Library/StdDriver/src/clk.c:605:21
	ldr	r0, [r1]
	movs	r2, #4
	str	r2, [sp, #4]                    @ 4-byte Spill
	orrs	r0, r2
	str	r0, [r1]
	movs	r0, #16
	.loc	4 608 9                         @ ../../../../Library/StdDriver/src/clk.c:608:9
	bl	CLK_WaitClockReady
                                        @ kill: def $r1 killed $r0
	ldr	r0, [sp, #4]                    @ 4-byte Reload
	movs	r1, #1
	lsls	r1, r1, #19
	.loc	4 611 20                        @ ../../../../Library/StdDriver/src/clk.c:611:20
	str	r1, [sp, #32]
	ldr	r1, __arm_cp.13_2
	.loc	4 612 22                        @ ../../../../Library/StdDriver/src/clk.c:612:22
	str	r1, [sp, #48]
	.loc	4 615 15                        @ ../../../../Library/StdDriver/src/clk.c:615:15
	str	r0, [sp, #44]
	b	.LBB13_3
.Ltmp86:
.LBB13_3:
	.loc	4 619 10                        @ ../../../../Library/StdDriver/src/clk.c:619:10
	ldr	r0, [sp, #52]
	ldr	r1, __arm_cp.13_4
	.loc	4 619 37 is_stmt 0              @ ../../../../Library/StdDriver/src/clk.c:619:37
	cmp	r0, r1
	bhi	.LBB13_6
	b	.LBB13_4
.LBB13_4:
	.loc	4 619 41                        @ ../../../../Library/StdDriver/src/clk.c:619:41
	ldr	r0, [sp, #52]
	ldr	r1, __arm_cp.13_5
.Ltmp87:
	.loc	4 619 9                         @ ../../../../Library/StdDriver/src/clk.c:619:9
	cmp	r0, r1
	blo	.LBB13_6
	b	.LBB13_5
.LBB13_5:
	.loc	4 0 9                           @ ../../../../Library/StdDriver/src/clk.c:0:9
	movs	r0, #0
.Ltmp88:
	.loc	4 621 15 is_stmt 1              @ ../../../../Library/StdDriver/src/clk.c:621:15
	str	r0, [sp, #36]
	.loc	4 622 5                         @ ../../../../Library/StdDriver/src/clk.c:622:5
	b	.LBB13_15
.Ltmp89:
.LBB13_6:
	.loc	4 623 15                        @ ../../../../Library/StdDriver/src/clk.c:623:15
	ldr	r0, [sp, #52]
	ldr	r1, __arm_cp.13_6
	.loc	4 623 42 is_stmt 0              @ ../../../../Library/StdDriver/src/clk.c:623:42
	cmp	r0, r1
	bhi	.LBB13_9
	b	.LBB13_7
.LBB13_7:
	.loc	4 623 46                        @ ../../../../Library/StdDriver/src/clk.c:623:46
	ldr	r0, [sp, #52]
	ldr	r1, __arm_cp.13_7
.Ltmp90:
	.loc	4 623 14                        @ ../../../../Library/StdDriver/src/clk.c:623:14
	cmp	r0, r1
	blo	.LBB13_9
	b	.LBB13_8
.LBB13_8:
	.loc	4 0 14                          @ ../../../../Library/StdDriver/src/clk.c:0:14
	movs	r0, #1
.Ltmp91:
	.loc	4 625 15 is_stmt 1              @ ../../../../Library/StdDriver/src/clk.c:625:15
	str	r0, [sp, #36]
	.loc	4 626 22                        @ ../../../../Library/StdDriver/src/clk.c:626:22
	ldr	r0, [sp, #52]
	.loc	4 626 33 is_stmt 0              @ ../../../../Library/StdDriver/src/clk.c:626:33
	lsls	r0, r0, #1
	.loc	4 626 20                        @ ../../../../Library/StdDriver/src/clk.c:626:20
	str	r0, [sp, #52]
	.loc	4 627 5 is_stmt 1               @ ../../../../Library/StdDriver/src/clk.c:627:5
	b	.LBB13_14
.Ltmp92:
.LBB13_9:
	.loc	4 628 15                        @ ../../../../Library/StdDriver/src/clk.c:628:15
	ldr	r0, [sp, #52]
	ldr	r1, __arm_cp.13_8
	.loc	4 628 41 is_stmt 0              @ ../../../../Library/StdDriver/src/clk.c:628:41
	cmp	r0, r1
	bhi	.LBB13_12
	b	.LBB13_10
.LBB13_10:
	.loc	4 628 45                        @ ../../../../Library/StdDriver/src/clk.c:628:45
	ldr	r0, [sp, #52]
	ldr	r1, __arm_cp.13_9
.Ltmp93:
	.loc	4 628 14                        @ ../../../../Library/StdDriver/src/clk.c:628:14
	cmp	r0, r1
	blo	.LBB13_12
	b	.LBB13_11
.LBB13_11:
	.loc	4 0 14                          @ ../../../../Library/StdDriver/src/clk.c:0:14
	movs	r0, #3
.Ltmp94:
	.loc	4 630 15 is_stmt 1              @ ../../../../Library/StdDriver/src/clk.c:630:15
	str	r0, [sp, #36]
	.loc	4 631 22                        @ ../../../../Library/StdDriver/src/clk.c:631:22
	ldr	r0, [sp, #52]
	.loc	4 631 33 is_stmt 0              @ ../../../../Library/StdDriver/src/clk.c:631:33
	lsls	r0, r0, #2
	.loc	4 631 20                        @ ../../../../Library/StdDriver/src/clk.c:631:20
	str	r0, [sp, #52]
	.loc	4 632 5 is_stmt 1               @ ../../../../Library/StdDriver/src/clk.c:632:5
	b	.LBB13_13
.Ltmp95:
.LBB13_12:
	.loc	4 636 9                         @ ../../../../Library/StdDriver/src/clk.c:636:9
	b	.LBB13_37
.Ltmp96:
.LBB13_13:
	.loc	4 0 9 is_stmt 0                 @ ../../../../Library/StdDriver/src/clk.c:0:9
	b	.LBB13_14
.LBB13_14:
	b	.LBB13_15
.LBB13_15:
	movs	r0, #0
	mvns	r1, r0
	.loc	4 640 12 is_stmt 1              @ ../../../../Library/StdDriver/src/clk.c:640:12
	str	r1, [sp, #16]
	.loc	4 641 14                        @ ../../../../Library/StdDriver/src/clk.c:641:14
	str	r0, [sp, #8]
	.loc	4 642 14                        @ ../../../../Library/StdDriver/src/clk.c:642:14
	str	r0, [sp, #12]
	.loc	4 644 5                         @ ../../../../Library/StdDriver/src/clk.c:644:5
	b	.LBB13_16
.LBB13_16:                              @ =>This Loop Header: Depth=1
                                        @     Child Loop BB13_20 Depth 2
.Ltmp97:
	.loc	4 644 12 is_stmt 0              @ ../../../../Library/StdDriver/src/clk.c:644:12
	ldr	r0, [sp, #44]
.Ltmp98:
	.loc	4 644 5                         @ ../../../../Library/StdDriver/src/clk.c:644:5
	cmp	r0, #33
	bhi	.LBB13_36
	b	.LBB13_17
.LBB13_17:                              @   in Loop: Header=BB13_16 Depth=1
.Ltmp99:
	.loc	4 646 18 is_stmt 1              @ ../../../../Library/StdDriver/src/clk.c:646:18
	ldr	r0, [sp, #48]
	.loc	4 646 33 is_stmt 0              @ ../../../../Library/StdDriver/src/clk.c:646:33
	ldr	r1, [sp, #44]
	.loc	4 646 31                        @ ../../../../Library/StdDriver/src/clk.c:646:31
	bl	__aeabi_uidiv
	.loc	4 646 16                        @ ../../../../Library/StdDriver/src/clk.c:646:16
	str	r0, [sp, #28]
.Ltmp100:
	.loc	4 648 14 is_stmt 1              @ ../../../../Library/StdDriver/src/clk.c:648:14
	ldr	r0, [sp, #28]
	ldr	r1, __arm_cp.13_13
	.loc	4 648 32 is_stmt 0              @ ../../../../Library/StdDriver/src/clk.c:648:32
	cmp	r0, r1
	blo	.LBB13_34
	b	.LBB13_18
.LBB13_18:                              @   in Loop: Header=BB13_16 Depth=1
	.loc	4 648 36                        @ ../../../../Library/StdDriver/src/clk.c:648:36
	ldr	r0, [sp, #28]
	ldr	r1, __arm_cp.13_14
.Ltmp101:
	.loc	4 648 13                        @ ../../../../Library/StdDriver/src/clk.c:648:13
	cmp	r0, r1
	bhi	.LBB13_34
	b	.LBB13_19
.LBB13_19:                              @   in Loop: Header=BB13_16 Depth=1
	.loc	4 0 13                          @ ../../../../Library/StdDriver/src/clk.c:0:13
	movs	r0, #2
.Ltmp102:
	.loc	4 650 24 is_stmt 1              @ ../../../../Library/StdDriver/src/clk.c:650:24
	str	r0, [sp, #40]
	.loc	4 650 18 is_stmt 0              @ ../../../../Library/StdDriver/src/clk.c:650:18
	b	.LBB13_20
.LBB13_20:                              @   Parent Loop BB13_16 Depth=1
                                        @ =>  This Inner Loop Header: Depth=2
.Ltmp103:
	.loc	4 650 29                        @ ../../../../Library/StdDriver/src/clk.c:650:29
	ldr	r0, [sp, #40]
	ldr	r1, __arm_cp.13_15
.Ltmp104:
	.loc	4 650 13                        @ ../../../../Library/StdDriver/src/clk.c:650:13
	cmp	r0, r1
	bhi	.LBB13_33
	b	.LBB13_21
.LBB13_21:                              @   in Loop: Header=BB13_20 Depth=2
.Ltmp105:
	.loc	4 652 27 is_stmt 1              @ ../../../../Library/StdDriver/src/clk.c:652:27
	ldr	r1, [sp, #28]
	.loc	4 652 36 is_stmt 0              @ ../../../../Library/StdDriver/src/clk.c:652:36
	ldr	r0, [sp, #40]
	.loc	4 652 34                        @ ../../../../Library/StdDriver/src/clk.c:652:34
	muls	r0, r1, r0
	.loc	4 652 25                        @ ../../../../Library/StdDriver/src/clk.c:652:25
	str	r0, [sp, #24]
.Ltmp106:
	.loc	4 654 22 is_stmt 1              @ ../../../../Library/StdDriver/src/clk.c:654:22
	ldr	r0, [sp, #24]
	ldr	r1, __arm_cp.13_6
	.loc	4 654 44 is_stmt 0              @ ../../../../Library/StdDriver/src/clk.c:654:44
	cmp	r0, r1
	blo	.LBB13_31
	b	.LBB13_22
.LBB13_22:                              @   in Loop: Header=BB13_20 Depth=2
	.loc	4 654 48                        @ ../../../../Library/StdDriver/src/clk.c:654:48
	ldr	r0, [sp, #24]
	ldr	r1, __arm_cp.13_4
.Ltmp107:
	.loc	4 654 21                        @ ../../../../Library/StdDriver/src/clk.c:654:21
	cmp	r0, r1
	bhi	.LBB13_31
	b	.LBB13_23
.LBB13_23:                              @   in Loop: Header=BB13_20 Depth=2
.Ltmp108:
	.loc	4 656 32 is_stmt 1              @ ../../../../Library/StdDriver/src/clk.c:656:32
	ldr	r0, [sp, #24]
	.loc	4 656 42 is_stmt 0              @ ../../../../Library/StdDriver/src/clk.c:656:42
	ldr	r1, [sp, #52]
	.loc	4 656 31                        @ ../../../../Library/StdDriver/src/clk.c:656:31
	cmp	r0, r1
	bls	.LBB13_25
	b	.LBB13_24
.LBB13_24:                              @   in Loop: Header=BB13_20 Depth=2
	.loc	4 656 56                        @ ../../../../Library/StdDriver/src/clk.c:656:56
	ldr	r0, [sp, #24]
	.loc	4 656 66                        @ ../../../../Library/StdDriver/src/clk.c:656:66
	ldr	r1, [sp, #52]
	.loc	4 656 64                        @ ../../../../Library/StdDriver/src/clk.c:656:64
	subs	r0, r0, r1
	.loc	4 656 31                        @ ../../../../Library/StdDriver/src/clk.c:656:31
	str	r0, [sp]                        @ 4-byte Spill
	b	.LBB13_26
.LBB13_25:                              @   in Loop: Header=BB13_20 Depth=2
	.loc	4 656 79                        @ ../../../../Library/StdDriver/src/clk.c:656:79
	ldr	r0, [sp, #52]
	.loc	4 656 92                        @ ../../../../Library/StdDriver/src/clk.c:656:92
	ldr	r1, [sp, #24]
	.loc	4 656 90                        @ ../../../../Library/StdDriver/src/clk.c:656:90
	subs	r0, r0, r1
	.loc	4 656 31                        @ ../../../../Library/StdDriver/src/clk.c:656:31
	str	r0, [sp]                        @ 4-byte Spill
	b	.LBB13_26
.LBB13_26:                              @   in Loop: Header=BB13_20 Depth=2
	ldr	r0, [sp]                        @ 4-byte Reload
	.loc	4 656 29                        @ ../../../../Library/StdDriver/src/clk.c:656:29
	str	r0, [sp, #20]
.Ltmp109:
	.loc	4 658 25 is_stmt 1              @ ../../../../Library/StdDriver/src/clk.c:658:25
	ldr	r0, [sp, #20]
	.loc	4 658 35 is_stmt 0              @ ../../../../Library/StdDriver/src/clk.c:658:35
	ldr	r1, [sp, #16]
.Ltmp110:
	.loc	4 658 25                        @ ../../../../Library/StdDriver/src/clk.c:658:25
	cmp	r0, r1
	bhs	.LBB13_30
	b	.LBB13_27
.LBB13_27:                              @   in Loop: Header=BB13_20 Depth=2
.Ltmp111:
	.loc	4 660 34 is_stmt 1              @ ../../../../Library/StdDriver/src/clk.c:660:34
	ldr	r0, [sp, #20]
	.loc	4 660 32 is_stmt 0              @ ../../../../Library/StdDriver/src/clk.c:660:32
	str	r0, [sp, #16]
	.loc	4 661 36 is_stmt 1              @ ../../../../Library/StdDriver/src/clk.c:661:36
	ldr	r0, [sp, #44]
	.loc	4 661 34 is_stmt 0              @ ../../../../Library/StdDriver/src/clk.c:661:34
	str	r0, [sp, #8]
	.loc	4 662 36 is_stmt 1              @ ../../../../Library/StdDriver/src/clk.c:662:36
	ldr	r0, [sp, #40]
	.loc	4 662 34 is_stmt 0              @ ../../../../Library/StdDriver/src/clk.c:662:34
	str	r0, [sp, #12]
.Ltmp112:
	.loc	4 665 29 is_stmt 1              @ ../../../../Library/StdDriver/src/clk.c:665:29
	ldr	r0, [sp, #16]
.Ltmp113:
	.loc	4 665 29 is_stmt 0              @ ../../../../Library/StdDriver/src/clk.c:665:29
	cmp	r0, #0
	bne	.LBB13_29
	b	.LBB13_28
.LBB13_28:                              @   in Loop: Header=BB13_16 Depth=1
.Ltmp114:
	.loc	4 666 29 is_stmt 1              @ ../../../../Library/StdDriver/src/clk.c:666:29
	b	.LBB13_33
.Ltmp115:
.LBB13_29:                              @   in Loop: Header=BB13_20 Depth=2
	.loc	4 667 21                        @ ../../../../Library/StdDriver/src/clk.c:667:21
	b	.LBB13_30
.Ltmp116:
.LBB13_30:                              @   in Loop: Header=BB13_20 Depth=2
	.loc	4 668 17                        @ ../../../../Library/StdDriver/src/clk.c:668:17
	b	.LBB13_31
.Ltmp117:
.LBB13_31:                              @   in Loop: Header=BB13_20 Depth=2
	.loc	4 669 13                        @ ../../../../Library/StdDriver/src/clk.c:669:13
	b	.LBB13_32
.Ltmp118:
.LBB13_32:                              @   in Loop: Header=BB13_20 Depth=2
	.loc	4 650 48                        @ ../../../../Library/StdDriver/src/clk.c:650:48
	ldr	r0, [sp, #40]
	adds	r0, r0, #1
	str	r0, [sp, #40]
	.loc	4 650 13 is_stmt 0              @ ../../../../Library/StdDriver/src/clk.c:650:13
	b	.LBB13_20
.Ltmp119:
.LBB13_33:                              @   in Loop: Header=BB13_16 Depth=1
	.loc	4 670 9 is_stmt 1               @ ../../../../Library/StdDriver/src/clk.c:670:9
	b	.LBB13_34
.Ltmp120:
.LBB13_34:                              @   in Loop: Header=BB13_16 Depth=1
	.loc	4 671 5                         @ ../../../../Library/StdDriver/src/clk.c:671:5
	b	.LBB13_35
.Ltmp121:
.LBB13_35:                              @   in Loop: Header=BB13_16 Depth=1
	.loc	4 644 30                        @ ../../../../Library/StdDriver/src/clk.c:644:30
	ldr	r0, [sp, #44]
	adds	r0, r0, #1
	str	r0, [sp, #44]
	.loc	4 644 5 is_stmt 0               @ ../../../../Library/StdDriver/src/clk.c:644:5
	b	.LBB13_16
.Ltmp122:
.LBB13_36:
	.loc	4 674 19 is_stmt 1              @ ../../../../Library/StdDriver/src/clk.c:674:19
	ldr	r0, [sp, #32]
	.loc	4 674 33 is_stmt 0              @ ../../../../Library/StdDriver/src/clk.c:674:33
	ldr	r1, [sp, #36]
	.loc	4 674 39                        @ ../../../../Library/StdDriver/src/clk.c:674:39
	lsls	r1, r1, #14
	.loc	4 674 30                        @ ../../../../Library/StdDriver/src/clk.c:674:30
	orrs	r0, r1
	.loc	4 674 50                        @ ../../../../Library/StdDriver/src/clk.c:674:50
	ldr	r1, [sp, #8]
	.loc	4 674 59                        @ ../../../../Library/StdDriver/src/clk.c:674:59
	lsls	r1, r1, #9
	ldr	r2, __arm_cp.13_12
	.loc	4 674 64                        @ ../../../../Library/StdDriver/src/clk.c:674:64
	adds	r1, r1, r2
	.loc	4 674 46                        @ ../../../../Library/StdDriver/src/clk.c:674:46
	orrs	r0, r1
	.loc	4 674 73                        @ ../../../../Library/StdDriver/src/clk.c:674:73
	ldr	r1, [sp, #12]
	.loc	4 674 82                        @ ../../../../Library/StdDriver/src/clk.c:674:82
	subs	r1, r1, #2
	.loc	4 674 70                        @ ../../../../Library/StdDriver/src/clk.c:674:70
	orrs	r0, r1
	ldr	r1, __arm_cp.13_0
	.loc	4 674 17                        @ ../../../../Library/StdDriver/src/clk.c:674:17
	str	r0, [r1]
	movs	r0, #4
	.loc	4 677 5 is_stmt 1               @ ../../../../Library/StdDriver/src/clk.c:677:5
	bl	CLK_WaitClockReady
	.loc	4 680 12                        @ ../../../../Library/StdDriver/src/clk.c:680:12
	ldr	r0, [sp, #48]
	.loc	4 680 29 is_stmt 0              @ ../../../../Library/StdDriver/src/clk.c:680:29
	ldr	r1, [sp, #36]
	.loc	4 680 35                        @ ../../../../Library/StdDriver/src/clk.c:680:35
	adds	r2, r1, #1
	.loc	4 680 42                        @ ../../../../Library/StdDriver/src/clk.c:680:42
	ldr	r1, [sp, #8]
	.loc	4 680 40                        @ ../../../../Library/StdDriver/src/clk.c:680:40
	muls	r1, r2, r1
	.loc	4 680 25                        @ ../../../../Library/StdDriver/src/clk.c:680:25
	bl	__aeabi_uidiv
	mov	r1, r0
	.loc	4 680 54                        @ ../../../../Library/StdDriver/src/clk.c:680:54
	ldr	r0, [sp, #12]
	.loc	4 680 52                        @ ../../../../Library/StdDriver/src/clk.c:680:52
	muls	r0, r1, r0
	.loc	4 680 5                         @ ../../../../Library/StdDriver/src/clk.c:680:5
	str	r0, [sp, #60]
	b	.LBB13_41
.LBB13_37:
.Ltmp123:
	@DEBUG_LABEL: CLK_EnablePLL:lexit
	.loc	4 685 9 is_stmt 1               @ ../../../../Library/StdDriver/src/clk.c:685:9
	ldr	r0, [sp, #56]
.Ltmp124:
	.loc	4 685 9 is_stmt 0               @ ../../../../Library/StdDriver/src/clk.c:685:9
	cmp	r0, #0
	bne	.LBB13_39
	b	.LBB13_38
.LBB13_38:
	.loc	4 0 9                           @ ../../../../Library/StdDriver/src/clk.c:0:9
	ldr	r1, __arm_cp.13_0
	ldr	r0, __arm_cp.13_11
.Ltmp125:
	.loc	4 686 21 is_stmt 1              @ ../../../../Library/StdDriver/src/clk.c:686:21
	str	r0, [r1]
	.loc	4 686 9 is_stmt 0               @ ../../../../Library/StdDriver/src/clk.c:686:9
	b	.LBB13_40
.LBB13_39:
	.loc	4 0 9                           @ ../../../../Library/StdDriver/src/clk.c:0:9
	ldr	r1, __arm_cp.13_0
	ldr	r0, __arm_cp.13_10
	.loc	4 688 21 is_stmt 1              @ ../../../../Library/StdDriver/src/clk.c:688:21
	str	r0, [r1]
	b	.LBB13_40
.Ltmp126:
.LBB13_40:
	.loc	4 0 21 is_stmt 0                @ ../../../../Library/StdDriver/src/clk.c:0:21
	movs	r0, #4
	.loc	4 690 5 is_stmt 1               @ ../../../../Library/StdDriver/src/clk.c:690:5
	bl	CLK_WaitClockReady
	.loc	4 691 12                        @ ../../../../Library/StdDriver/src/clk.c:691:12
	bl	CLK_GetPLLClockFreq
	.loc	4 691 5 is_stmt 0               @ ../../../../Library/StdDriver/src/clk.c:691:5
	str	r0, [sp, #60]
	b	.LBB13_41
.LBB13_41:
	.loc	4 693 1 is_stmt 1               @ ../../../../Library/StdDriver/src/clk.c:693:1
	ldr	r0, [sp, #60]
	.loc	4 693 1 epilogue_begin is_stmt 0 @ ../../../../Library/StdDriver/src/clk.c:693:1
	add	sp, #64
	pop	{r7, pc}
.Ltmp127:
	.p2align	2
@ %bb.42:
	.loc	4 0 1                           @ ../../../../Library/StdDriver/src/clk.c:0:1
__arm_cp.13_0:
	.long	1342177824                      @ 0x50000220
.Lcpi_end32:
	.size	__arm_cp.13_0, .Lcpi_end32-__arm_cp.13_0
__arm_cp.13_1:
	.long	1342177792                      @ 0x50000200
.Lcpi_end33:
	.size	__arm_cp.13_1, .Lcpi_end33-__arm_cp.13_1
__arm_cp.13_2:
	.long	22118400                        @ 0x1518000
.Lcpi_end34:
	.size	__arm_cp.13_2, .Lcpi_end34-__arm_cp.13_2
__arm_cp.13_3:
	.long	12000000                        @ 0xb71b00
.Lcpi_end35:
	.size	__arm_cp.13_3, .Lcpi_end35-__arm_cp.13_3
__arm_cp.13_4:
	.long	200000000                       @ 0xbebc200
.Lcpi_end36:
	.size	__arm_cp.13_4, .Lcpi_end36-__arm_cp.13_4
__arm_cp.13_5:
	.long	100000001                       @ 0x5f5e101
.Lcpi_end37:
	.size	__arm_cp.13_5, .Lcpi_end37-__arm_cp.13_5
__arm_cp.13_6:
	.long	100000000                       @ 0x5f5e100
.Lcpi_end38:
	.size	__arm_cp.13_6, .Lcpi_end38-__arm_cp.13_6
__arm_cp.13_7:
	.long	50000001                        @ 0x2faf081
.Lcpi_end39:
	.size	__arm_cp.13_7, .Lcpi_end39-__arm_cp.13_7
__arm_cp.13_8:
	.long	50000000                        @ 0x2faf080
.Lcpi_end40:
	.size	__arm_cp.13_8, .Lcpi_end40-__arm_cp.13_8
__arm_cp.13_9:
	.long	25000000                        @ 0x17d7840
.Lcpi_end41:
	.size	__arm_cp.13_9, .Lcpi_end41-__arm_cp.13_9
__arm_cp.13_10:
	.long	579183                          @ 0x8d66f
.Lcpi_end42:
	.size	__arm_cp.13_10, .Lcpi_end42-__arm_cp.13_10
__arm_cp.13_11:
	.long	49710                           @ 0xc22e
.Lcpi_end43:
	.size	__arm_cp.13_11, .Lcpi_end43-__arm_cp.13_11
__arm_cp.13_12:
	.long	4294966272                      @ 0xfffffc00
.Lcpi_end44:
	.size	__arm_cp.13_12, .Lcpi_end44-__arm_cp.13_12
__arm_cp.13_13:
	.long	1600001                         @ 0x186a01
.Lcpi_end45:
	.size	__arm_cp.13_13, .Lcpi_end45-__arm_cp.13_13
__arm_cp.13_14:
	.long	14999999                        @ 0xe4e1bf
.Lcpi_end46:
	.size	__arm_cp.13_14, .Lcpi_end46-__arm_cp.13_14
__arm_cp.13_15:
	.long	513                             @ 0x201
.Lcpi_end47:
	.size	__arm_cp.13_15, .Lcpi_end47-__arm_cp.13_15
.Lfunc_end13:
	.size	CLK_EnablePLL, .Lfunc_end13-CLK_EnablePLL
	.cfi_endproc
	.cantunwind
	.fnend
                                        @ -- End function
	.section	.text.CLK_SetHCLK,"ax",%progbits
	.hidden	CLK_SetHCLK                     @ -- Begin function CLK_SetHCLK
	.globl	CLK_SetHCLK
	.p2align	2
	.type	CLK_SetHCLK,%function
	.code	16                              @ @CLK_SetHCLK
	.thumb_func
CLK_SetHCLK:
.Lfunc_begin14:
	.loc	4 260 0 is_stmt 1               @ ../../../../Library/StdDriver/src/clk.c:260:0
	.fnstart
	.cfi_startproc
@ %bb.0:
	.save	{r4, lr}
	push	{r4, lr}
	.cfi_def_cfa_offset 8
	.cfi_offset lr, -4
	.cfi_offset r4, -8
	.pad	#16
	sub	sp, #16
	.cfi_def_cfa_offset 24
	str	r0, [sp, #12]
	str	r1, [sp, #8]
	ldr	r0, __arm_cp.14_0
.Ltmp128:
	.loc	4 264 23 prologue_end           @ ../../../../Library/StdDriver/src/clk.c:264:23
	ldr	r0, [r0]
	movs	r1, #16
	.loc	4 264 33 is_stmt 0              @ ../../../../Library/StdDriver/src/clk.c:264:33
	ands	r0, r1
	.loc	4 264 16                        @ ../../../../Library/StdDriver/src/clk.c:264:16
	str	r0, [sp, #4]
	ldr	r1, __arm_cp.14_1
	.loc	4 267 17 is_stmt 1              @ ../../../../Library/StdDriver/src/clk.c:267:17
	ldr	r0, [r1]
	movs	r2, #4
	orrs	r0, r2
	str	r0, [r1]
	.loc	4 269 5                         @ ../../../../Library/StdDriver/src/clk.c:269:5
	b	.LBB14_1
.LBB14_1:                               @ =>This Inner Loop Header: Depth=1
	.loc	4 0 5 is_stmt 0                 @ ../../../../Library/StdDriver/src/clk.c:0:5
	ldr	r0, __arm_cp.14_0
	.loc	4 269 18                        @ ../../../../Library/StdDriver/src/clk.c:269:18
	ldr	r0, [r0]
	.loc	4 269 5                         @ ../../../../Library/StdDriver/src/clk.c:269:5
	lsls	r0, r0, #27
	cmp	r0, #0
	bmi	.LBB14_3
	b	.LBB14_2
.LBB14_2:                               @   in Loop: Header=BB14_1 Depth=1
	b	.LBB14_1
.LBB14_3:
	.loc	4 0 5                           @ ../../../../Library/StdDriver/src/clk.c:0:5
	ldr	r1, __arm_cp.14_2
	.loc	4 271 26 is_stmt 1              @ ../../../../Library/StdDriver/src/clk.c:271:26
	ldr	r0, [r1]
	movs	r2, #7
	.loc	4 271 63 is_stmt 0              @ ../../../../Library/StdDriver/src/clk.c:271:63
	orrs	r0, r2
	.loc	4 271 18                        @ ../../../../Library/StdDriver/src/clk.c:271:18
	str	r0, [r1]
	ldr	r3, __arm_cp.14_3
	.loc	4 274 25 is_stmt 1              @ ../../../../Library/StdDriver/src/clk.c:274:25
	ldr	r0, [r3]
	movs	r4, #15
	.loc	4 274 32 is_stmt 0              @ ../../../../Library/StdDriver/src/clk.c:274:32
	bics	r0, r4
	.loc	4 274 62                        @ ../../../../Library/StdDriver/src/clk.c:274:62
	ldr	r4, [sp, #8]
	.loc	4 274 60                        @ ../../../../Library/StdDriver/src/clk.c:274:60
	orrs	r0, r4
	.loc	4 274 17                        @ ../../../../Library/StdDriver/src/clk.c:274:17
	str	r0, [r3]
	.loc	4 277 26 is_stmt 1              @ ../../../../Library/StdDriver/src/clk.c:277:26
	ldr	r0, [r1]
	.loc	4 277 34 is_stmt 0              @ ../../../../Library/StdDriver/src/clk.c:277:34
	bics	r0, r2
	.loc	4 277 65                        @ ../../../../Library/StdDriver/src/clk.c:277:65
	ldr	r2, [sp, #12]
	.loc	4 277 63                        @ ../../../../Library/StdDriver/src/clk.c:277:63
	orrs	r0, r2
	.loc	4 277 18                        @ ../../../../Library/StdDriver/src/clk.c:277:18
	str	r0, [r1]
	.loc	4 280 5 is_stmt 1               @ ../../../../Library/StdDriver/src/clk.c:280:5
	bl	SystemCoreClockUpdate
.Ltmp129:
	.loc	4 283 9                         @ ../../../../Library/StdDriver/src/clk.c:283:9
	ldr	r0, [sp, #4]
.Ltmp130:
	.loc	4 283 9 is_stmt 0               @ ../../../../Library/StdDriver/src/clk.c:283:9
	cmp	r0, #0
	bne	.LBB14_5
	b	.LBB14_4
.LBB14_4:
	.loc	4 0 9                           @ ../../../../Library/StdDriver/src/clk.c:0:9
	ldr	r1, __arm_cp.14_1
.Ltmp131:
	.loc	4 284 21 is_stmt 1              @ ../../../../Library/StdDriver/src/clk.c:284:21
	ldr	r0, [r1]
	movs	r2, #4
	bics	r0, r2
	str	r0, [r1]
	.loc	4 284 9 is_stmt 0               @ ../../../../Library/StdDriver/src/clk.c:284:9
	b	.LBB14_5
.Ltmp132:
.LBB14_5:
	.loc	4 285 1 epilogue_begin is_stmt 1 @ ../../../../Library/StdDriver/src/clk.c:285:1
	add	sp, #16
	pop	{r4, pc}
.Ltmp133:
	.p2align	2
@ %bb.6:
	.loc	4 0 1 is_stmt 0                 @ ../../../../Library/StdDriver/src/clk.c:0:1
__arm_cp.14_0:
	.long	1342177804                      @ 0x5000020c
.Lcpi_end48:
	.size	__arm_cp.14_0, .Lcpi_end48-__arm_cp.14_0
__arm_cp.14_1:
	.long	1342177792                      @ 0x50000200
.Lcpi_end49:
	.size	__arm_cp.14_1, .Lcpi_end49-__arm_cp.14_1
__arm_cp.14_2:
	.long	1342177808                      @ 0x50000210
.Lcpi_end50:
	.size	__arm_cp.14_2, .Lcpi_end50-__arm_cp.14_2
__arm_cp.14_3:
	.long	1342177816                      @ 0x50000218
.Lcpi_end51:
	.size	__arm_cp.14_3, .Lcpi_end51-__arm_cp.14_3
.Lfunc_end14:
	.size	CLK_SetHCLK, .Lfunc_end14-CLK_SetHCLK
	.cfi_endproc
	.cantunwind
	.fnend
                                        @ -- End function
	.section	.text.CLK_SetSysTickClockSrc,"ax",%progbits
	.hidden	CLK_SetSysTickClockSrc          @ -- Begin function CLK_SetSysTickClockSrc
	.globl	CLK_SetSysTickClockSrc
	.p2align	2
	.type	CLK_SetSysTickClockSrc,%function
	.code	16                              @ @CLK_SetSysTickClockSrc
	.thumb_func
CLK_SetSysTickClockSrc:
.Lfunc_begin15:
	.loc	4 437 0 is_stmt 1               @ ../../../../Library/StdDriver/src/clk.c:437:0
	.fnstart
	.cfi_startproc
@ %bb.0:
	.pad	#4
	sub	sp, #4
	.cfi_def_cfa_offset 4
	str	r0, [sp]
	ldr	r1, __arm_cp.15_0
.Ltmp134:
	.loc	4 438 26 prologue_end           @ ../../../../Library/StdDriver/src/clk.c:438:26
	ldr	r0, [r1]
	movs	r2, #56
	.loc	4 438 34 is_stmt 0              @ ../../../../Library/StdDriver/src/clk.c:438:34
	bics	r0, r2
	.loc	4 438 64                        @ ../../../../Library/StdDriver/src/clk.c:438:64
	ldr	r2, [sp]
	.loc	4 438 62                        @ ../../../../Library/StdDriver/src/clk.c:438:62
	orrs	r0, r2
	.loc	4 438 18                        @ ../../../../Library/StdDriver/src/clk.c:438:18
	str	r0, [r1]
	.loc	4 439 1 epilogue_begin is_stmt 1 @ ../../../../Library/StdDriver/src/clk.c:439:1
	add	sp, #4
	bx	lr
.Ltmp135:
	.p2align	2
@ %bb.1:
	.loc	4 0 1 is_stmt 0                 @ ../../../../Library/StdDriver/src/clk.c:0:1
__arm_cp.15_0:
	.long	1342177808                      @ 0x50000210
.Lcpi_end52:
	.size	__arm_cp.15_0, .Lcpi_end52-__arm_cp.15_0
.Lfunc_end15:
	.size	CLK_SetSysTickClockSrc, .Lfunc_end15-CLK_SetSysTickClockSrc
	.cfi_endproc
	.cantunwind
	.fnend
                                        @ -- End function
	.section	.text.CLK_EnableXtalRC,"ax",%progbits
	.hidden	CLK_EnableXtalRC                @ -- Begin function CLK_EnableXtalRC
	.globl	CLK_EnableXtalRC
	.p2align	2
	.type	CLK_EnableXtalRC,%function
	.code	16                              @ @CLK_EnableXtalRC
	.thumb_func
CLK_EnableXtalRC:
.Lfunc_begin16:
	.loc	4 452 0 is_stmt 1               @ ../../../../Library/StdDriver/src/clk.c:452:0
	.fnstart
	.cfi_startproc
@ %bb.0:
	.pad	#4
	sub	sp, #4
	.cfi_def_cfa_offset 4
	str	r0, [sp]
.Ltmp136:
	.loc	4 453 20 prologue_end           @ ../../../../Library/StdDriver/src/clk.c:453:20
	ldr	r2, [sp]
	ldr	r1, __arm_cp.16_0
	.loc	4 453 17 is_stmt 0              @ ../../../../Library/StdDriver/src/clk.c:453:17
	ldr	r0, [r1]
	orrs	r0, r2
	str	r0, [r1]
	.loc	4 454 1 epilogue_begin is_stmt 1 @ ../../../../Library/StdDriver/src/clk.c:454:1
	add	sp, #4
	bx	lr
.Ltmp137:
	.p2align	2
@ %bb.1:
	.loc	4 0 1 is_stmt 0                 @ ../../../../Library/StdDriver/src/clk.c:0:1
__arm_cp.16_0:
	.long	1342177792                      @ 0x50000200
.Lcpi_end53:
	.size	__arm_cp.16_0, .Lcpi_end53-__arm_cp.16_0
.Lfunc_end16:
	.size	CLK_EnableXtalRC, .Lfunc_end16-CLK_EnableXtalRC
	.cfi_endproc
	.cantunwind
	.fnend
                                        @ -- End function
	.section	.text.CLK_DisableXtalRC,"ax",%progbits
	.hidden	CLK_DisableXtalRC               @ -- Begin function CLK_DisableXtalRC
	.globl	CLK_DisableXtalRC
	.p2align	2
	.type	CLK_DisableXtalRC,%function
	.code	16                              @ @CLK_DisableXtalRC
	.thumb_func
CLK_DisableXtalRC:
.Lfunc_begin17:
	.loc	4 467 0 is_stmt 1               @ ../../../../Library/StdDriver/src/clk.c:467:0
	.fnstart
	.cfi_startproc
@ %bb.0:
	.pad	#4
	sub	sp, #4
	.cfi_def_cfa_offset 4
	str	r0, [sp]
.Ltmp138:
	.loc	4 468 21 prologue_end           @ ../../../../Library/StdDriver/src/clk.c:468:21
	ldr	r2, [sp]
	ldr	r1, __arm_cp.17_0
	.loc	4 468 17 is_stmt 0              @ ../../../../Library/StdDriver/src/clk.c:468:17
	ldr	r0, [r1]
	bics	r0, r2
	str	r0, [r1]
	.loc	4 469 1 epilogue_begin is_stmt 1 @ ../../../../Library/StdDriver/src/clk.c:469:1
	add	sp, #4
	bx	lr
.Ltmp139:
	.p2align	2
@ %bb.1:
	.loc	4 0 1 is_stmt 0                 @ ../../../../Library/StdDriver/src/clk.c:0:1
__arm_cp.17_0:
	.long	1342177792                      @ 0x50000200
.Lcpi_end54:
	.size	__arm_cp.17_0, .Lcpi_end54-__arm_cp.17_0
.Lfunc_end17:
	.size	CLK_DisableXtalRC, .Lfunc_end17-CLK_DisableXtalRC
	.cfi_endproc
	.cantunwind
	.fnend
                                        @ -- End function
	.section	.text.CLK_WaitClockReady,"ax",%progbits
	.hidden	CLK_WaitClockReady              @ -- Begin function CLK_WaitClockReady
	.globl	CLK_WaitClockReady
	.p2align	2
	.type	CLK_WaitClockReady,%function
	.code	16                              @ @CLK_WaitClockReady
	.thumb_func
CLK_WaitClockReady:
.Lfunc_begin18:
	.loc	4 720 0 is_stmt 1               @ ../../../../Library/StdDriver/src/clk.c:720:0
	.fnstart
	.cfi_startproc
@ %bb.0:
	.pad	#12
	sub	sp, #12
	.cfi_def_cfa_offset 12
	str	r0, [sp, #4]
	ldr	r0, __arm_cp.18_0
.Ltmp140:
	.loc	4 721 13 prologue_end           @ ../../../../Library/StdDriver/src/clk.c:721:13
	str	r0, [sp]
	.loc	4 723 5                         @ ../../../../Library/StdDriver/src/clk.c:723:5
	b	.LBB18_1
.LBB18_1:                               @ =>This Inner Loop Header: Depth=1
	.loc	4 0 5 is_stmt 0                 @ ../../../../Library/StdDriver/src/clk.c:0:5
	ldr	r0, __arm_cp.18_1
	.loc	4 723 18                        @ ../../../../Library/StdDriver/src/clk.c:723:18
	ldr	r0, [r0]
	.loc	4 723 30                        @ ../../../../Library/StdDriver/src/clk.c:723:30
	ldr	r1, [sp, #4]
	.loc	4 723 28                        @ ../../../../Library/StdDriver/src/clk.c:723:28
	ands	r0, r1
	.loc	4 723 5                         @ ../../../../Library/StdDriver/src/clk.c:723:5
	cmp	r0, r1
	beq	.LBB18_5
	b	.LBB18_2
.LBB18_2:                               @   in Loop: Header=BB18_1 Depth=1
.Ltmp141:
	.loc	4 725 26 is_stmt 1              @ ../../../../Library/StdDriver/src/clk.c:725:26
	ldr	r0, [sp]
	subs	r1, r0, #1
	str	r1, [sp]
.Ltmp142:
	.loc	4 725 13 is_stmt 0              @ ../../../../Library/StdDriver/src/clk.c:725:13
	cmp	r0, #0
	bgt	.LBB18_4
	b	.LBB18_3
.LBB18_3:
	.loc	4 0 13                          @ ../../../../Library/StdDriver/src/clk.c:0:13
	movs	r0, #0
.Ltmp143:
	.loc	4 726 13 is_stmt 1              @ ../../../../Library/StdDriver/src/clk.c:726:13
	str	r0, [sp, #8]
	b	.LBB18_6
.Ltmp144:
.LBB18_4:                               @   in Loop: Header=BB18_1 Depth=1
	.loc	4 723 5                         @ ../../../../Library/StdDriver/src/clk.c:723:5
	b	.LBB18_1
.LBB18_5:
	.loc	4 0 5 is_stmt 0                 @ ../../../../Library/StdDriver/src/clk.c:0:5
	movs	r0, #1
	.loc	4 729 5 is_stmt 1               @ ../../../../Library/StdDriver/src/clk.c:729:5
	str	r0, [sp, #8]
	b	.LBB18_6
.LBB18_6:
	.loc	4 730 1                         @ ../../../../Library/StdDriver/src/clk.c:730:1
	ldr	r0, [sp, #8]
	.loc	4 730 1 epilogue_begin is_stmt 0 @ ../../../../Library/StdDriver/src/clk.c:730:1
	add	sp, #12
	bx	lr
.Ltmp145:
	.p2align	2
@ %bb.7:
	.loc	4 0 1                           @ ../../../../Library/StdDriver/src/clk.c:0:1
__arm_cp.18_0:
	.long	1200000                         @ 0x124f80
.Lcpi_end55:
	.size	__arm_cp.18_0, .Lcpi_end55-__arm_cp.18_0
__arm_cp.18_1:
	.long	1342177804                      @ 0x5000020c
.Lcpi_end56:
	.size	__arm_cp.18_1, .Lcpi_end56-__arm_cp.18_1
.Lfunc_end18:
	.size	CLK_WaitClockReady, .Lfunc_end18-CLK_WaitClockReady
	.cfi_endproc
	.cantunwind
	.fnend
                                        @ -- End function
	.section	.text.CLK_GetPLLClockFreq,"ax",%progbits
	.p2align	2                               @ -- Begin function CLK_GetPLLClockFreq
	.type	CLK_GetPLLClockFreq,%function
	.code	16                              @ @CLK_GetPLLClockFreq
	.thumb_func
CLK_GetPLLClockFreq:
.Lfunc_begin19:
	.file	6 "C:\\Users\\nguye\\Desktop\\crc\\SampleCode\\ExampleCode\\NUC240_Software_CRC\\KEIL" "../../../../Library/StdDriver/inc\\clk.h"
	.loc	6 448 0 is_stmt 1               @ ../../../../Library/StdDriver/inc\clk.h:448:0
	.fnstart
	.cfi_startproc
@ %bb.0:
	.save	{r7, lr}
	push	{r7, lr}
	.cfi_def_cfa_offset 8
	.cfi_offset lr, -4
	.cfi_offset r7, -8
	.pad	#32
	sub	sp, #32
	.cfi_def_cfa_offset 40
	movs	r0, #0
.Ltmp146:
	.loc	6 449 14 prologue_end           @ ../../../../Library/StdDriver/inc\clk.h:449:14
	str	r0, [sp, #24]
	ldr	r0, __arm_cp.19_0
	.loc	6 451 13                        @ ../../../../Library/StdDriver/inc\clk.h:451:13
	str	r0, [sp]
	ldr	r0, __arm_cp.19_1
	.loc	6 453 22                        @ ../../../../Library/StdDriver/inc\clk.h:453:22
	ldr	r0, [r0]
	.loc	6 453 15 is_stmt 0              @ ../../../../Library/StdDriver/inc\clk.h:453:15
	str	r0, [sp, #20]
	add	r0, sp, #20
	.loc	6 455 9 is_stmt 1               @ ../../../../Library/StdDriver/inc\clk.h:455:9
	ldrb	r0, [r0, #2]
	movs	r1, #5
	tst	r0, r1
	beq	.LBB19_2
	b	.LBB19_1
.LBB19_1:
	.loc	6 0 9 is_stmt 0                 @ ../../../../Library/StdDriver/inc\clk.h:0:9
	movs	r0, #0
.Ltmp147:
	.loc	6 456 9 is_stmt 1               @ ../../../../Library/StdDriver/inc\clk.h:456:9
	str	r0, [sp, #28]
	b	.LBB19_8
.Ltmp148:
.LBB19_2:
	.loc	6 0 9 is_stmt 0                 @ ../../../../Library/StdDriver/inc\clk.h:0:9
	add	r0, sp, #20
	.loc	6 458 9 is_stmt 1               @ ../../../../Library/StdDriver/inc\clk.h:458:9
	ldrb	r0, [r0, #2]
	lsls	r0, r0, #28
	cmp	r0, #0
	bpl	.LBB19_4
	b	.LBB19_3
.LBB19_3:
	.loc	6 0 9 is_stmt 0                 @ ../../../../Library/StdDriver/inc\clk.h:0:9
	ldr	r0, __arm_cp.19_3
.Ltmp149:
	.loc	6 459 16 is_stmt 1              @ ../../../../Library/StdDriver/inc\clk.h:459:16
	str	r0, [sp, #16]
	.loc	6 459 9 is_stmt 0               @ ../../../../Library/StdDriver/inc\clk.h:459:9
	b	.LBB19_5
.LBB19_4:
	.loc	6 0 9                           @ ../../../../Library/StdDriver/inc\clk.h:0:9
	ldr	r0, __arm_cp.19_2
	.loc	6 461 16 is_stmt 1              @ ../../../../Library/StdDriver/inc\clk.h:461:16
	str	r0, [sp, #16]
	b	.LBB19_5
.Ltmp150:
.LBB19_5:
	.loc	6 0 16 is_stmt 0                @ ../../../../Library/StdDriver/inc\clk.h:0:16
	add	r0, sp, #20
	.loc	6 463 9 is_stmt 1               @ ../../../../Library/StdDriver/inc\clk.h:463:9
	ldrb	r0, [r0, #2]
	lsls	r0, r0, #30
	cmp	r0, #0
	bpl	.LBB19_7
	b	.LBB19_6
.LBB19_6:
.Ltmp151:
	.loc	6 464 16                        @ ../../../../Library/StdDriver/inc\clk.h:464:16
	ldr	r0, [sp, #16]
	.loc	6 464 9 is_stmt 0               @ ../../../../Library/StdDriver/inc\clk.h:464:9
	str	r0, [sp, #28]
	b	.LBB19_8
.Ltmp152:
.LBB19_7:
	.loc	6 0 9                           @ ../../../../Library/StdDriver/inc\clk.h:0:9
	add	r0, sp, #20
	.loc	6 467 24 is_stmt 1              @ ../../../../Library/StdDriver/inc\clk.h:467:24
	ldrh	r0, [r0]
	.loc	6 467 59 is_stmt 0              @ ../../../../Library/StdDriver/inc\clk.h:467:59
	lsrs	r1, r0, #14
	mov	r0, sp
	.loc	6 467 13                        @ ../../../../Library/StdDriver/inc\clk.h:467:13
	adds	r0, r0, r1
	ldrb	r0, [r0]
	.loc	6 467 11                        @ ../../../../Library/StdDriver/inc\clk.h:467:11
	str	r0, [sp, #4]
	.loc	6 468 15 is_stmt 1              @ ../../../../Library/StdDriver/inc\clk.h:468:15
	ldr	r0, [sp, #20]
	ldr	r1, __arm_cp.19_4
	.loc	6 468 25 is_stmt 0              @ ../../../../Library/StdDriver/inc\clk.h:468:25
	ands	r0, r1
	.loc	6 468 74                        @ ../../../../Library/StdDriver/inc\clk.h:468:74
	adds	r0, r0, #2
	.loc	6 468 11                        @ ../../../../Library/StdDriver/inc\clk.h:468:11
	str	r0, [sp, #12]
	.loc	6 469 15 is_stmt 1              @ ../../../../Library/StdDriver/inc\clk.h:469:15
	ldr	r0, [sp, #20]
	movs	r1, #31
	lsls	r1, r1, #9
	.loc	6 469 25 is_stmt 0              @ ../../../../Library/StdDriver/inc\clk.h:469:25
	ands	r0, r1
	.loc	6 469 49                        @ ../../../../Library/StdDriver/inc\clk.h:469:49
	lsrs	r0, r0, #9
	.loc	6 469 74                        @ ../../../../Library/StdDriver/inc\clk.h:469:74
	adds	r0, r0, #2
	.loc	6 469 11                        @ ../../../../Library/StdDriver/inc\clk.h:469:11
	str	r0, [sp, #8]
	.loc	6 472 21 is_stmt 1              @ ../../../../Library/StdDriver/inc\clk.h:472:21
	ldr	r0, [sp, #16]
	.loc	6 472 28 is_stmt 0              @ ../../../../Library/StdDriver/inc\clk.h:472:28
	lsrs	r1, r0, #2
	.loc	6 472 36                        @ ../../../../Library/StdDriver/inc\clk.h:472:36
	ldr	r0, [sp, #12]
	.loc	6 472 34                        @ ../../../../Library/StdDriver/inc\clk.h:472:34
	muls	r0, r1, r0
	.loc	6 472 46                        @ ../../../../Library/StdDriver/inc\clk.h:472:46
	ldr	r2, [sp, #8]
	.loc	6 472 54                        @ ../../../../Library/StdDriver/inc\clk.h:472:54
	ldr	r1, [sp, #4]
	.loc	6 472 52                        @ ../../../../Library/StdDriver/inc\clk.h:472:52
	muls	r1, r2, r1
	.loc	6 472 43                        @ ../../../../Library/StdDriver/inc\clk.h:472:43
	bl	__aeabi_uidiv
	.loc	6 472 61                        @ ../../../../Library/StdDriver/inc\clk.h:472:61
	lsls	r0, r0, #2
	.loc	6 472 16                        @ ../../../../Library/StdDriver/inc\clk.h:472:16
	str	r0, [sp, #24]
	.loc	6 474 12 is_stmt 1              @ ../../../../Library/StdDriver/inc\clk.h:474:12
	ldr	r0, [sp, #24]
	.loc	6 474 5 is_stmt 0               @ ../../../../Library/StdDriver/inc\clk.h:474:5
	str	r0, [sp, #28]
	b	.LBB19_8
.LBB19_8:
	.loc	6 475 1 is_stmt 1               @ ../../../../Library/StdDriver/inc\clk.h:475:1
	ldr	r0, [sp, #28]
	.loc	6 475 1 epilogue_begin is_stmt 0 @ ../../../../Library/StdDriver/inc\clk.h:475:1
	add	sp, #32
	pop	{r7, pc}
.Ltmp153:
	.p2align	2
@ %bb.9:
	.loc	6 0 1                           @ ../../../../Library/StdDriver/inc\clk.h:0:1
__arm_cp.19_0:
	.long	67240449                        @ 0x4020201
.Lcpi_end57:
	.size	__arm_cp.19_0, .Lcpi_end57-__arm_cp.19_0
__arm_cp.19_1:
	.long	1342177824                      @ 0x50000220
.Lcpi_end58:
	.size	__arm_cp.19_1, .Lcpi_end58-__arm_cp.19_1
__arm_cp.19_2:
	.long	12000000                        @ 0xb71b00
.Lcpi_end59:
	.size	__arm_cp.19_2, .Lcpi_end59-__arm_cp.19_2
__arm_cp.19_3:
	.long	22118400                        @ 0x1518000
.Lcpi_end60:
	.size	__arm_cp.19_3, .Lcpi_end60-__arm_cp.19_3
__arm_cp.19_4:
	.long	511                             @ 0x1ff
.Lcpi_end61:
	.size	__arm_cp.19_4, .Lcpi_end61-__arm_cp.19_4
.Lfunc_end19:
	.size	CLK_GetPLLClockFreq, .Lfunc_end19-CLK_GetPLLClockFreq
	.cfi_endproc
	.cantunwind
	.fnend
                                        @ -- End function
	.section	.text.CLK_DisablePLL,"ax",%progbits
	.hidden	CLK_DisablePLL                  @ -- Begin function CLK_DisablePLL
	.globl	CLK_DisablePLL
	.p2align	2
	.type	CLK_DisablePLL,%function
	.code	16                              @ @CLK_DisablePLL
	.thumb_func
CLK_DisablePLL:
.Lfunc_begin20:
	.loc	4 702 0 is_stmt 1               @ ../../../../Library/StdDriver/src/clk.c:702:0
	.fnstart
	.cfi_startproc
@ %bb.0:
	ldr	r1, __arm_cp.20_0
.Ltmp154:
	.loc	4 703 17 prologue_end           @ ../../../../Library/StdDriver/src/clk.c:703:17
	ldr	r0, [r1]
	movs	r2, #1
	lsls	r2, r2, #16
	orrs	r0, r2
	str	r0, [r1]
	.loc	4 704 1                         @ ../../../../Library/StdDriver/src/clk.c:704:1
	bx	lr
.Ltmp155:
	.p2align	2
@ %bb.1:
	.loc	4 0 1 is_stmt 0                 @ ../../../../Library/StdDriver/src/clk.c:0:1
__arm_cp.20_0:
	.long	1342177824                      @ 0x50000220
.Lcpi_end62:
	.size	__arm_cp.20_0, .Lcpi_end62-__arm_cp.20_0
.Lfunc_end20:
	.size	CLK_DisablePLL, .Lfunc_end20-CLK_DisablePLL
	.cfi_endproc
	.cantunwind
	.fnend
                                        @ -- End function
	.section	.text.CLK_EnableSysTick,"ax",%progbits
	.hidden	CLK_EnableSysTick               @ -- Begin function CLK_EnableSysTick
	.globl	CLK_EnableSysTick
	.p2align	2
	.type	CLK_EnableSysTick,%function
	.code	16                              @ @CLK_EnableSysTick
	.thumb_func
CLK_EnableSysTick:
.Lfunc_begin21:
	.loc	4 747 0 is_stmt 1               @ ../../../../Library/StdDriver/src/clk.c:747:0
	.fnstart
	.cfi_startproc
@ %bb.0:
	.pad	#8
	sub	sp, #8
	.cfi_def_cfa_offset 8
	str	r0, [sp, #4]
	str	r1, [sp]
	ldr	r1, __arm_cp.21_0
	movs	r0, #0
.Ltmp156:
	.loc	4 749 19 prologue_end           @ ../../../../Library/StdDriver/src/clk.c:749:19
	str	r0, [r1]
.Ltmp157:
	.loc	4 752 9                         @ ../../../../Library/StdDriver/src/clk.c:752:9
	ldr	r0, [sp, #4]
.Ltmp158:
	.loc	4 752 9 is_stmt 0               @ ../../../../Library/StdDriver/src/clk.c:752:9
	cmp	r0, #4
	bne	.LBB21_2
	b	.LBB21_1
.LBB21_1:
	.loc	4 0 9                           @ ../../../../Library/StdDriver/src/clk.c:0:9
	ldr	r1, __arm_cp.21_0
.Ltmp159:
	.loc	4 753 23 is_stmt 1              @ ../../../../Library/StdDriver/src/clk.c:753:23
	ldr	r0, [r1]
	movs	r2, #4
	orrs	r0, r2
	str	r0, [r1]
	.loc	4 753 9 is_stmt 0               @ ../../../../Library/StdDriver/src/clk.c:753:9
	b	.LBB21_3
.LBB21_2:
	.loc	4 0 9                           @ ../../../../Library/StdDriver/src/clk.c:0:9
	ldr	r1, __arm_cp.21_1
	.loc	4 755 30 is_stmt 1              @ ../../../../Library/StdDriver/src/clk.c:755:30
	ldr	r0, [r1]
	movs	r2, #56
	.loc	4 755 38 is_stmt 0              @ ../../../../Library/StdDriver/src/clk.c:755:38
	bics	r0, r2
	.loc	4 755 68                        @ ../../../../Library/StdDriver/src/clk.c:755:68
	ldr	r2, [sp, #4]
	.loc	4 755 66                        @ ../../../../Library/StdDriver/src/clk.c:755:66
	orrs	r0, r2
	.loc	4 755 22                        @ ../../../../Library/StdDriver/src/clk.c:755:22
	str	r0, [r1]
	b	.LBB21_3
.Ltmp160:
.LBB21_3:
	.loc	4 758 21 is_stmt 1              @ ../../../../Library/StdDriver/src/clk.c:758:21
	ldr	r0, [sp]
	ldr	r1, __arm_cp.21_2
	.loc	4 758 19 is_stmt 0              @ ../../../../Library/StdDriver/src/clk.c:758:19
	str	r0, [r1]
	ldr	r1, __arm_cp.21_3
	movs	r0, #0
	.loc	4 761 18 is_stmt 1              @ ../../../../Library/StdDriver/src/clk.c:761:18
	str	r0, [r1]
	ldr	r1, __arm_cp.21_0
	.loc	4 764 19                        @ ../../../../Library/StdDriver/src/clk.c:764:19
	ldr	r0, [r1]
	movs	r2, #3
	orrs	r0, r2
	str	r0, [r1]
	.loc	4 765 1 epilogue_begin          @ ../../../../Library/StdDriver/src/clk.c:765:1
	add	sp, #8
	bx	lr
.Ltmp161:
	.p2align	2
@ %bb.4:
	.loc	4 0 1 is_stmt 0                 @ ../../../../Library/StdDriver/src/clk.c:0:1
__arm_cp.21_0:
	.long	3758153744                      @ 0xe000e010
.Lcpi_end63:
	.size	__arm_cp.21_0, .Lcpi_end63-__arm_cp.21_0
__arm_cp.21_1:
	.long	1342177808                      @ 0x50000210
.Lcpi_end64:
	.size	__arm_cp.21_1, .Lcpi_end64-__arm_cp.21_1
__arm_cp.21_2:
	.long	3758153748                      @ 0xe000e014
.Lcpi_end65:
	.size	__arm_cp.21_2, .Lcpi_end65-__arm_cp.21_2
__arm_cp.21_3:
	.long	3758153752                      @ 0xe000e018
.Lcpi_end66:
	.size	__arm_cp.21_3, .Lcpi_end66-__arm_cp.21_3
.Lfunc_end21:
	.size	CLK_EnableSysTick, .Lfunc_end21-CLK_EnableSysTick
	.cfi_endproc
	.cantunwind
	.fnend
                                        @ -- End function
	.section	.text.CLK_DisableSysTick,"ax",%progbits
	.hidden	CLK_DisableSysTick              @ -- Begin function CLK_DisableSysTick
	.globl	CLK_DisableSysTick
	.p2align	2
	.type	CLK_DisableSysTick,%function
	.code	16                              @ @CLK_DisableSysTick
	.thumb_func
CLK_DisableSysTick:
.Lfunc_begin22:
	.loc	4 774 0 is_stmt 1               @ ../../../../Library/StdDriver/src/clk.c:774:0
	.fnstart
	.cfi_startproc
@ %bb.0:
	ldr	r1, __arm_cp.22_0
	movs	r0, #0
.Ltmp162:
	.loc	4 776 19 prologue_end           @ ../../../../Library/StdDriver/src/clk.c:776:19
	str	r0, [r1]
	.loc	4 777 1                         @ ../../../../Library/StdDriver/src/clk.c:777:1
	bx	lr
.Ltmp163:
	.p2align	2
@ %bb.1:
	.loc	4 0 1 is_stmt 0                 @ ../../../../Library/StdDriver/src/clk.c:0:1
__arm_cp.22_0:
	.long	3758153744                      @ 0xe000e010
.Lcpi_end67:
	.size	__arm_cp.22_0, .Lcpi_end67-__arm_cp.22_0
.Lfunc_end22:
	.size	CLK_DisableSysTick, .Lfunc_end22-CLK_DisableSysTick
	.cfi_endproc
	.cantunwind
	.fnend
                                        @ -- End function
	.type	.L__const.CLK_SetModuleClock.u32SelTbl,%object @ @__const.CLK_SetModuleClock.u32SelTbl
	.section	.rodata.cst16,"aM",%progbits,16
	.p2align	2, 0x0
.L__const.CLK_SetModuleClock.u32SelTbl:
	.long	0                               @ 0x0
	.long	4                               @ 0x4
	.long	12                              @ 0xc
	.long	36                              @ 0x24
	.size	.L__const.CLK_SetModuleClock.u32SelTbl, 16

	.type	.L__const.CLK_SetModuleClock.u32DivTbl,%object @ @__const.CLK_SetModuleClock.u32DivTbl
	.section	.rodata.cst8,"aM",%progbits,8
	.p2align	2, 0x0
.L__const.CLK_SetModuleClock.u32DivTbl:
	.long	0                               @ 0x0
	.long	32                              @ 0x20
	.size	.L__const.CLK_SetModuleClock.u32DivTbl, 8

	.type	.L__const.CLK_EnableModuleClock.u32OffsetTbl,%object @ @__const.CLK_EnableModuleClock.u32OffsetTbl
	.section	.rodata.cst16,"aM",%progbits,16
	.p2align	2, 0x0
.L__const.CLK_EnableModuleClock.u32OffsetTbl:
	.long	0                               @ 0x0
	.long	4                               @ 0x4
	.long	44                              @ 0x2c
	.long	0                               @ 0x0
	.size	.L__const.CLK_EnableModuleClock.u32OffsetTbl, 16

	.type	.L__const.CLK_DisableModuleClock.u32OffsetTbl,%object @ @__const.CLK_DisableModuleClock.u32OffsetTbl
	.p2align	2, 0x0
.L__const.CLK_DisableModuleClock.u32OffsetTbl:
	.long	0                               @ 0x0
	.long	4                               @ 0x4
	.long	44                              @ 0x2c
	.long	0                               @ 0x0
	.size	.L__const.CLK_DisableModuleClock.u32OffsetTbl, 16

	.type	.L__const.CLK_GetPLLClockFreq.au8NoTbl,%object @ @__const.CLK_GetPLLClockFreq.au8NoTbl
	.section	.rodata.cst4,"aM",%progbits,4
.L__const.CLK_GetPLLClockFreq.au8NoTbl:
	.ascii	"\001\002\002\004"
	.size	.L__const.CLK_GetPLLClockFreq.au8NoTbl, 4

	.section	".note.GNU-stack","",%progbits
	.eabi_attribute	30, 6	@ Tag_ABI_optimization_goals
	.ARM_attribute	16, 1	@ Tag_AV_eba