	.text
	.syntax unified
	.eabi_attribute	67, "2.09"	@ Tag_conformance
	.cpu	cortex-m0
	.eabi_attribute	6, 12	@ Tag_CPU_arch
	.eabi_attribute	7, 77	@ Tag_CPU_arch_profile
	.eabi_attribute	8, 0	@ Tag_ARM_ISA_use
	.eabi_attribute	9, 1	@ Tag_THUMB_ISA_use
	.eabi_attribute	34, 0	@ Tag_CPU_unaligned_access
	.eabi_attribute	17, 1	@ Tag_ABI_PCS_GOT_use
	.eabi_attribute	20, 2	@ Tag_ABI_FP_denormal
	.eabi_attribute	21, 0	@ Tag_ABI_FP_exceptions
	.eabi_attribute	23, 1	@ Tag_ABI_FP_number_model
	.eabi_attribute	24, 1	@ Tag_ABI_align_needed
	.eabi_attribute	25, 1	@ Tag_ABI_align_preserved
	.eabi_attribute	38, 1	@ Tag_ABI_FP_16bit_format
	.eabi_attribute	18, 2	@ Tag_ABI_PCS_wchar_t
	.eabi_attribute	26, 1	@ Tag_ABI_enum_size
	.eabi_attribute	14, 0	@ Tag_ABI_PCS_R9_use
	.file	"retarget.c"
	.file	1 "C:\\Users\\nguye\\Desktop\\crc\\SampleCode\\ExampleCode\\NUC240_Software_CRC\\KEIL" "../../../../Library/StdDriver/src/retarget.c"
	.file	2 "C:\\Keil_v5\\ARM\\ARMCLANG\\Bin\\..\\include" "stdio.h"
	.file	3 "C:\\Keil_v5\\ARM\\ARMCLANG\\Bin\\..\\include" "stdint.h"
	.file	4 "C:\\Users\\nguye\\Desktop\\crc\\SampleCode\\ExampleCode\\NUC240_Software_CRC\\KEIL" "../../../../Library/Device/Nuvoton/NUC230_240/Include\\NUC230_240.h"
	.section	.text.Hard_Fault_Handler,"ax",%progbits
	.hidden	Hard_Fault_Handler              @ -- Begin function Hard_Fault_Handler
	.globl	Hard_Fault_Handler
	.p2align	2
	.type	Hard_Fault_Handler,%function
	.code	16                              @ @Hard_Fault_Handler
	.thumb_func
Hard_Fault_Handler:
.Lfunc_begin0:
	.loc	1 64 0                          @ ../../../../Library/StdDriver/src/retarget.c:64:0
	.fnstart
	.cfi_sections .debug_frame
	.cfi_startproc
@ %bb.0:
	.save	{r7, lr}
	push	{r7, lr}
	.cfi_def_cfa_offset 8
	.cfi_offset lr, -4
	.cfi_offset r7, -8
	.pad	#8
	sub	sp, #8
	.cfi_def_cfa_offset 16
	str	r0, [sp, #4]
.Ltmp0:
	.loc	1 65 5 prologue_end             @ ../../../../Library/StdDriver/src/retarget.c:65:5
	ldr	r0, __arm_cp.0_0
	bl	printf
	.loc	1 67 15                         @ ../../../../Library/StdDriver/src/retarget.c:67:15
	ldr	r0, [sp, #4]
	.loc	1 67 5 is_stmt 0                @ ../../../../Library/StdDriver/src/retarget.c:67:5
	bl	stackDump
	.loc	1 70 5 is_stmt 1                @ ../../../../Library/StdDriver/src/retarget.c:70:5
	b	.LBB0_1
.LBB0_1:                                @ =>This Inner Loop Header: Depth=1
	b	.LBB0_1
.Ltmp1:
	.p2align	2
@ %bb.2:
	.loc	1 0 5 is_stmt 0                 @ ../../../../Library/StdDriver/src/retarget.c:0:5
__arm_cp.0_0:
	.long	.L.str
.Lcpi_end0:
	.size	__arm_cp.0_0, .Lcpi_end0-__arm_cp.0_0
.Lfunc_end0:
	.size	Hard_Fault_Handler, .Lfunc_end0-Hard_Fault_Handler
	.cfi_endproc
	.cantunwind
	.fnend
                                        @ -- End function
	.section	.text.stackDump,"ax",%progbits
	.p2align	2                               @ -- Begin function stackDump
	.type	stackDump,%function
	.code	16                              @ @stackDump
	.thumb_func
stackDump:
.Lfunc_begin1:
	.loc	1 46 0 is_stmt 1                @ ../../../../Library/StdDriver/src/retarget.c:46:0
	.fnstart
	.cfi_startproc
@ %bb.0:
	.save	{r7, lr}
	push	{r7, lr}
	.cfi_def_cfa_offset 8
	.cfi_offset lr, -4
	.cfi_offset r7, -8
	.pad	#8
	sub	sp, #8
	.cfi_def_cfa_offset 16
	str	r0, [sp, #4]
.Ltmp2:
	.loc	1 47 28 prologue_end            @ ../../../../Library/StdDriver/src/retarget.c:47:28
	ldr	r0, [sp, #4]
	ldr	r1, [r0]
	.loc	1 47 5 is_stmt 0                @ ../../../../Library/StdDriver/src/retarget.c:47:5
	ldr	r0, __arm_cp.1_0
	bl	printf
	.loc	1 48 28 is_stmt 1               @ ../../../../Library/StdDriver/src/retarget.c:48:28
	ldr	r0, [sp, #4]
	ldr	r1, [r0, #4]
	.loc	1 48 5 is_stmt 0                @ ../../../../Library/StdDriver/src/retarget.c:48:5
	ldr	r0, __arm_cp.1_1
	bl	printf
	.loc	1 49 28 is_stmt 1               @ ../../../../Library/StdDriver/src/retarget.c:49:28
	ldr	r0, [sp, #4]
	ldr	r1, [r0, #8]
	.loc	1 49 5 is_stmt 0                @ ../../../../Library/StdDriver/src/retarget.c:49:5
	ldr	r0, __arm_cp.1_2
	bl	printf
	.loc	1 50 28 is_stmt 1               @ ../../../../Library/StdDriver/src/retarget.c:50:28
	ldr	r0, [sp, #4]
	ldr	r1, [r0, #12]
	.loc	1 50 5 is_stmt 0                @ ../../../../Library/StdDriver/src/retarget.c:50:5
	ldr	r0, __arm_cp.1_3
	bl	printf
	.loc	1 51 28 is_stmt 1               @ ../../../../Library/StdDriver/src/retarget.c:51:28
	ldr	r0, [sp, #4]
	ldr	r1, [r0, #16]
	.loc	1 51 5 is_stmt 0                @ ../../../../Library/StdDriver/src/retarget.c:51:5
	ldr	r0, __arm_cp.1_4
	bl	printf
	.loc	1 52 28 is_stmt 1               @ ../../../../Library/StdDriver/src/retarget.c:52:28
	ldr	r0, [sp, #4]
	ldr	r1, [r0, #20]
	.loc	1 52 5 is_stmt 0                @ ../../../../Library/StdDriver/src/retarget.c:52:5
	ldr	r0, __arm_cp.1_5
	bl	printf
	.loc	1 53 28 is_stmt 1               @ ../../../../Library/StdDriver/src/retarget.c:53:28
	ldr	r0, [sp, #4]
	ldr	r1, [r0, #24]
	.loc	1 53 5 is_stmt 0                @ ../../../../Library/StdDriver/src/retarget.c:53:5
	ldr	r0, __arm_cp.1_6
	bl	printf
	.loc	1 54 28 is_stmt 1               @ ../../../../Library/StdDriver/src/retarget.c:54:28
	ldr	r0, [sp, #4]
	ldr	r1, [r0, #28]
	.loc	1 54 5 is_stmt 0                @ ../../../../Library/StdDriver/src/retarget.c:54:5
	ldr	r0, __arm_cp.1_7
	bl	printf
	.loc	1 55 1 epilogue_begin is_stmt 1 @ ../../../../Library/StdDriver/src/retarget.c:55:1
	add	sp, #8
	pop	{r7, pc}
.Ltmp3:
	.p2align	2
@ %bb.1:
	.loc	1 0 1 is_stmt 0                 @ ../../../../Library/StdDriver/src/retarget.c:0:1
__arm_cp.1_0:
	.long	.L.str.1
.Lcpi_end1:
	.size	__arm_cp.1_0, .Lcpi_end1-__arm_cp.1_0
__arm_cp.1_1:
	.long	.L.str.2
.Lcpi_end2:
	.size	__arm_cp.1_1, .Lcpi_end2-__arm_cp.1_1
__arm_cp.1_2:
	.long	.L.str.3
.Lcpi_end3:
	.size	__arm_cp.1_2, .Lcpi_end3-__arm_cp.1_2
__arm_cp.1_3:
	.long	.L.str.4
.Lcpi_end4:
	.size	__arm_cp.1_3, .Lcpi_end4-__arm_cp.1_3
__arm_cp.1_4:
	.long	.L.str.5
.Lcpi_end5:
	.size	__arm_cp.1_4, .Lcpi_end5-__arm_cp.1_4
__arm_cp.1_5:
	.long	.L.str.6
.Lcpi_end6:
	.size	__arm_cp.1_5, .Lcpi_end6-__arm_cp.1_5
__arm_cp.1_6:
	.long	.L.str.7
.Lcpi_end7:
	.size	__arm_cp.1_6, .Lcpi_end7-__arm_cp.1_6
__arm_cp.1_7:
	.long	.L.str.8
.Lcpi_end8:
	.size	__arm_cp.1_7, .Lcpi_end8-__arm_cp.1_7
.Lfunc_end1:
	.size	stackDump, .Lfunc_end1-stackDump
	.cfi_endproc
	.cantunwind
	.fnend
                                        @ -- End function
	.section	.text.HardFault_Handler,"ax",%progbits
	.hidden	HardFault_Handler               @ -- Begin function HardFault_Handler
	.globl	HardFault_Handler
	.p2align	2
	.type	HardFault_Handler,%function
	.code	16                              @ @HardFault_Handler
	.thumb_func
HardFault_Handler:
.Lfunc_begin2:
	.fnstart
	.cfi_startproc
@ %bb.0:
	.loc	1 335 5 prologue_end is_stmt 1  @ ../../../../Library/StdDriver/src/retarget.c:335:5
	ldr	r0, __arm_cp.2_0
	@APP
	movs	r0, #4
	mov	r1, lr
	tst	r0, r1
	beq	.Ltmp4
	mrs	r0, psp
	mov	r1, lr
	b	Hard_Fault_Handler
.Ltmp4:
	mrs	r0, msp
	b	Hard_Fault_Handler

	@NO_APP
	.loc	1 347 5                         @ ../../../../Library/StdDriver/src/retarget.c:347:5
	b	.LBB2_1
.LBB2_1:                                @ =>This Inner Loop Header: Depth=1
	b	.LBB2_1
.Ltmp5:
	.p2align	2
@ %bb.2:
	.loc	1 0 5 is_stmt 0                 @ ../../../../Library/StdDriver/src/retarget.c:0:5
__arm_cp.2_0:
	.long	Hard_Fault_Handler
.Lcpi_end9:
	.size	__arm_cp.2_0, .Lcpi_end9-__arm_cp.2_0
.Lfunc_end2:
	.size	HardFault_Handler, .Lfunc_end2-HardFault_Handler
	.cfi_endproc
	.cantunwind
	.fnend
                                        @ -- End function
	.section	.text.SendChar_ToUART,"ax",%progbits
	.hidden	SendChar_ToUART                 @ -- Begin function SendChar_ToUART
	.globl	SendChar_ToUART
	.p2align	2
	.type	SendChar_ToUART,%function
	.code	16                              @ @SendChar_ToUART
	.thumb_func
SendChar_ToUART:
.Lfunc_begin3:
	.loc	1 438 0 is_stmt 1               @ ../../../../Library/StdDriver/src/retarget.c:438:0
	.fnstart
	.cfi_startproc
@ %bb.0:
	.pad	#4
	sub	sp, #4
	.cfi_def_cfa_offset 4
	str	r0, [sp]
.Ltmp6:
	.loc	1 440 5 prologue_end            @ ../../../../Library/StdDriver/src/retarget.c:440:5
	b	.LBB3_1
.LBB3_1:                                @ =>This Inner Loop Header: Depth=1
	.loc	1 0 5 is_stmt 0                 @ ../../../../Library/StdDriver/src/retarget.c:0:5
	ldr	r0, __arm_cp.3_0
	.loc	1 440 23                        @ ../../../../Library/StdDriver/src/retarget.c:440:23
	ldr	r0, [r0]
	.loc	1 440 5                         @ ../../../../Library/StdDriver/src/retarget.c:440:5
	lsls	r0, r0, #8
	cmp	r0, #0
	bpl	.LBB3_3
	b	.LBB3_2
.LBB3_2:                                @   in Loop: Header=BB3_1 Depth=1
	b	.LBB3_1
.LBB3_3:
	.loc	1 441 24 is_stmt 1              @ ../../../../Library/StdDriver/src/retarget.c:441:24
	ldr	r0, [sp]
	ldr	r1, __arm_cp.3_1
	.loc	1 441 22 is_stmt 0              @ ../../../../Library/StdDriver/src/retarget.c:441:22
	str	r0, [r1]
.Ltmp7:
	.loc	1 442 8 is_stmt 1               @ ../../../../Library/StdDriver/src/retarget.c:442:8
	ldr	r0, [sp]
.Ltmp8:
	.loc	1 442 8 is_stmt 0               @ ../../../../Library/StdDriver/src/retarget.c:442:8
	cmp	r0, #10
	bne	.LBB3_8
	b	.LBB3_4
.LBB3_4:
.Ltmp9:
	.loc	1 444 9 is_stmt 1               @ ../../../../Library/StdDriver/src/retarget.c:444:9
	b	.LBB3_5
.LBB3_5:                                @ =>This Inner Loop Header: Depth=1
	.loc	1 0 9 is_stmt 0                 @ ../../../../Library/StdDriver/src/retarget.c:0:9
	ldr	r0, __arm_cp.3_0
	.loc	1 444 27                        @ ../../../../Library/StdDriver/src/retarget.c:444:27
	ldr	r0, [r0]
	.loc	1 444 9                         @ ../../../../Library/StdDriver/src/retarget.c:444:9
	lsls	r0, r0, #8
	cmp	r0, #0
	bpl	.LBB3_7
	b	.LBB3_6
.LBB3_6:                                @   in Loop: Header=BB3_5 Depth=1
	b	.LBB3_5
.LBB3_7:
	.loc	1 0 9                           @ ../../../../Library/StdDriver/src/retarget.c:0:9
	ldr	r1, __arm_cp.3_1
	movs	r0, #13
	.loc	1 445 26 is_stmt 1              @ ../../../../Library/StdDriver/src/retarget.c:445:26
	str	r0, [r1]
	.loc	1 446 5                         @ ../../../../Library/StdDriver/src/retarget.c:446:5
	b	.LBB3_8
.Ltmp10:
.LBB3_8:
	.loc	1 447 1 epilogue_begin          @ ../../../../Library/StdDriver/src/retarget.c:447:1
	add	sp, #4
	bx	lr
.Ltmp11:
	.p2align	2
@ %bb.9:
	.loc	1 0 1 is_stmt 0                 @ ../../../../Library/StdDriver/src/retarget.c:0:1
__arm_cp.3_0:
	.long	1074069528                      @ 0x40050018
.Lcpi_end10:
	.size	__arm_cp.3_0, .Lcpi_end10-__arm_cp.3_0
__arm_cp.3_1:
	.long	1074069504                      @ 0x40050000
.Lcpi_end11:
	.size	__arm_cp.3_1, .Lcpi_end11-__arm_cp.3_1
.Lfunc_end3:
	.size	SendChar_ToUART, .Lfunc_end3-SendChar_ToUART
	.cfi_endproc
	.cantunwind
	.fnend
                                        @ -- End function
	.section	.text.SendChar,"ax",%progbits
	.hidden	SendChar                        @ -- Begin function SendChar
	.globl	SendChar
	.p2align	1
	.type	SendChar,%function
	.code	16                              @ @SendChar
	.thumb_func
SendChar:
.Lfunc_begin4:
	.loc	1 518 0 is_stmt 1               @ ../../../../Library/StdDriver/src/retarget.c:518:0
	.fnstart
	.cfi_startproc
@ %bb.0:
	.save	{r7, lr}
	push	{r7, lr}
	.cfi_def_cfa_offset 8
	.cfi_offset lr, -4
	.cfi_offset r7, -8
	.pad	#8
	sub	sp, #8
	.cfi_def_cfa_offset 16
	str	r0, [sp, #4]
.Ltmp12:
	.loc	1 536 21 prologue_end           @ ../../../../Library/StdDriver/src/retarget.c:536:21
	ldr	r0, [sp, #4]
	.loc	1 536 5 is_stmt 0               @ ../../../../Library/StdDriver/src/retarget.c:536:5
	bl	SendChar_ToUART
	.loc	1 538 1 epilogue_begin is_stmt 1 @ ../../../../Library/StdDriver/src/retarget.c:538:1
	add	sp, #8
	pop	{r7, pc}
.Ltmp13:
.Lfunc_end4:
	.size	SendChar, .Lfunc_end4-SendChar
	.cfi_endproc
	.cantunwind
	.fnend
                                        @ -- End function
	.section	.text.GetChar,"ax",%progbits
	.hidden	GetChar                         @ -- Begin function GetChar
	.globl	GetChar
	.p2align	2
	.type	GetChar,%function
	.code	16                              @ @GetChar
	.thumb_func
GetChar:
.Lfunc_begin5:
	.fnstart
	.cfi_startproc
@ %bb.0:
	.loc	1 573 5 prologue_end            @ ../../../../Library/StdDriver/src/retarget.c:573:5
	b	.LBB5_1
.LBB5_1:                                @ =>This Inner Loop Header: Depth=1
	.loc	1 0 5 is_stmt 0                 @ ../../../../Library/StdDriver/src/retarget.c:0:5
	ldr	r0, __arm_cp.5_0
.Ltmp14:
	.loc	1 575 25 is_stmt 1              @ ../../../../Library/StdDriver/src/retarget.c:575:25
	ldr	r0, [r0]
.Ltmp15:
	.loc	1 575 12 is_stmt 0              @ ../../../../Library/StdDriver/src/retarget.c:575:12
	lsls	r0, r0, #17
	cmp	r0, #0
	bmi	.LBB5_3
	b	.LBB5_2
.LBB5_2:
	.loc	1 0 12                          @ ../../../../Library/StdDriver/src/retarget.c:0:12
	ldr	r0, __arm_cp.5_1
.Ltmp16:
	.loc	1 577 33 is_stmt 1              @ ../../../../Library/StdDriver/src/retarget.c:577:33
	ldr	r0, [r0]
	.loc	1 577 13 is_stmt 0              @ ../../../../Library/StdDriver/src/retarget.c:577:13
	uxtb	r0, r0
	bx	lr
.Ltmp17:
.LBB5_3:                                @   in Loop: Header=BB5_1 Depth=1
	.loc	1 573 5 is_stmt 1               @ ../../../../Library/StdDriver/src/retarget.c:573:5
	b	.LBB5_1
.Ltmp18:
	.p2align	2
@ %bb.4:
	.loc	1 0 5 is_stmt 0                 @ ../../../../Library/StdDriver/src/retarget.c:0:5
__arm_cp.5_0:
	.long	1074069528                      @ 0x40050018
.Lcpi_end12:
	.size	__arm_cp.5_0, .Lcpi_end12-__arm_cp.5_0
__arm_cp.5_1:
	.long	1074069504                      @ 0x40050000
.Lcpi_end13:
	.size	__arm_cp.5_1, .Lcpi_end13-__arm_cp.5_1
.Lfunc_end5:
	.size	GetChar, .Lfunc_end5-GetChar
	.cfi_endproc
	.cantunwind
	.fnend
                                        @ -- End function
	.section	.text.kbhit,"ax",%progbits
	.hidden	kbhit                           @ -- Begin function kbhit
	.globl	kbhit
	.p2align	2
	.type	kbhit,%function
	.code	16                              @ @kbhit
	.thumb_func
kbhit:
.Lfunc_begin6:
	.loc	1 596 0 is_stmt 1               @ ../../../../Library/StdDriver/src/retarget.c:596:0
	.fnstart
	.cfi_startproc
@ %bb.0:
	ldr	r0, __arm_cp.6_0
.Ltmp19:
	.loc	1 597 27 prologue_end           @ ../../../../Library/StdDriver/src/retarget.c:597:27
	ldr	r0, [r0]
	movs	r1, #1
	lsls	r1, r1, #14
	.loc	1 597 31 is_stmt 0              @ ../../../../Library/StdDriver/src/retarget.c:597:31
	ands	r0, r1
	.loc	1 597 56                        @ ../../../../Library/StdDriver/src/retarget.c:597:56
	lsrs	r0, r0, #14
	.loc	1 597 5                         @ ../../../../Library/StdDriver/src/retarget.c:597:5
	bx	lr
.Ltmp20:
	.p2align	2
@ %bb.1:
	.loc	1 0 5                           @ ../../../../Library/StdDriver/src/retarget.c:0:5
__arm_cp.6_0:
	.long	1074069528                      @ 0x40050018
.Lcpi_end14:
	.size	__arm_cp.6_0, .Lcpi_end14-__arm_cp.6_0
.Lfunc_end6:
	.size	kbhit, .Lfunc_end6-kbhit
	.cfi_endproc
	.cantunwind
	.fnend
                                        @ -- End function
	.section	.text.IsDebugFifoEmpty,"ax",%progbits
	.hidden	IsDebugFifoEmpty                @ -- Begin function IsDebugFifoEmpty
	.globl	IsDebugFifoEmpty
	.p2align	2
	.type	IsDebugFifoEmpty,%function
	.code	16                              @ @IsDebugFifoEmpty
	.thumb_func
IsDebugFifoEmpty:
.Lfunc_begin7:
	.loc	1 611 0 is_stmt 1               @ ../../../../Library/StdDriver/src/retarget.c:611:0
	.fnstart
	.cfi_startproc
@ %bb.0:
	ldr	r0, __arm_cp.7_0
.Ltmp21:
	.loc	1 612 26 prologue_end           @ ../../../../Library/StdDriver/src/retarget.c:612:26
	ldr	r0, [r0]
	movs	r1, #1
	lsls	r1, r1, #28
	.loc	1 612 30 is_stmt 0              @ ../../../../Library/StdDriver/src/retarget.c:612:30
	ands	r0, r1
	.loc	1 612 54                        @ ../../../../Library/StdDriver/src/retarget.c:612:54
	lsrs	r0, r0, #28
	.loc	1 612 5                         @ ../../../../Library/StdDriver/src/retarget.c:612:5
	bx	lr
.Ltmp22:
	.p2align	2
@ %bb.1:
	.loc	1 0 5                           @ ../../../../Library/StdDriver/src/retarget.c:0:5
__arm_cp.7_0:
	.long	1074069528                      @ 0x40050018
.Lcpi_end15:
	.size	__arm_cp.7_0, .Lcpi_end15-__arm_cp.7_0
.Lfunc_end7:
	.size	IsDebugFifoEmpty, .Lfunc_end7-IsDebugFifoEmpty
	.cfi_endproc
	.cantunwind
	.fnend
                                        @ -- End function
	.section	.text._ttywrch,"ax",%progbits
	.hidden	_ttywrch                        @ -- Begin function _ttywrch
	.globl	_ttywrch
	.p2align	1
	.type	_ttywrch,%function
	.code	16                              @ @_ttywrch
	.thumb_func
_ttywrch:
.Lfunc_begin8:
	.loc	1 626 0 is_stmt 1               @ ../../../../Library/StdDriver/src/retarget.c:626:0
	.fnstart
	.cfi_startproc
@ %bb.0:
	.save	{r7, lr}
	push	{r7, lr}
	.cfi_def_cfa_offset 8
	.cfi_offset lr, -4
	.cfi_offset r7, -8
	.pad	#8
	sub	sp, #8
	.cfi_def_cfa_offset 16
	str	r0, [sp, #4]
.Ltmp23:
	.loc	1 627 14 prologue_end           @ ../../../../Library/StdDriver/src/retarget.c:627:14
	ldr	r0, [sp, #4]
	.loc	1 627 5 is_stmt 0               @ ../../../../Library/StdDriver/src/retarget.c:627:5
	bl	SendChar
	.loc	1 628 5 epilogue_begin is_stmt 1 @ ../../../../Library/StdDriver/src/retarget.c:628:5
	add	sp, #8
	pop	{r7, pc}
.Ltmp24:
.Lfunc_end8:
	.size	_ttywrch, .Lfunc_end8-_ttywrch
	.cfi_endproc
	.cantunwind
	.fnend
                                        @ -- End function
	.section	.text.fputc,"ax",%progbits
	.hidden	fputc                           @ -- Begin function fputc
	.globl	fputc
	.p2align	1
	.type	fputc,%function
	.code	16                              @ @fputc
	.thumb_func
fputc:
.Lfunc_begin9:
	.loc	1 651 0                         @ ../../../../Library/StdDriver/src/retarget.c:651:0
	.fnstart
	.cfi_startproc
@ %bb.0:
	.save	{r7, lr}
	push	{r7, lr}
	.cfi_def_cfa_offset 8
	.cfi_offset lr, -4
	.cfi_offset r7, -8
	.pad	#8
	sub	sp, #8
	.cfi_def_cfa_offset 16
	str	r0, [sp, #4]
	str	r1, [sp]
.Ltmp25:
	.loc	1 652 14 prologue_end           @ ../../../../Library/StdDriver/src/retarget.c:652:14
	ldr	r0, [sp, #4]
	.loc	1 652 5 is_stmt 0               @ ../../../../Library/StdDriver/src/retarget.c:652:5
	bl	SendChar
	.loc	1 653 12 is_stmt 1              @ ../../../../Library/StdDriver/src/retarget.c:653:12
	ldr	r0, [sp, #4]
	.loc	1 653 5 epilogue_begin is_stmt 0 @ ../../../../Library/StdDriver/src/retarget.c:653:5
	add	sp, #8
	pop	{r7, pc}
.Ltmp26:
.Lfunc_end9:
	.size	fputc, .Lfunc_end9-fputc
	.cfi_endproc
	.cantunwind
	.fnend
                                        @ -- End function
	.section	.text._write,"ax",%progbits
	.hidden	_write                          @ -- Begin function _write
	.globl	_write
	.p2align	2
	.type	_write,%function
	.code	16                              @ @_write
	.thumb_func
_write:
.Lfunc_begin10:
	.loc	1 660 0 is_stmt 1               @ ../../../../Library/StdDriver/src/retarget.c:660:0
	.fnstart
	.cfi_startproc
@ %bb.0:
	.pad	#16
	sub	sp, #16
	.cfi_def_cfa_offset 16
	str	r0, [sp, #12]
	str	r1, [sp, #8]
	str	r2, [sp, #4]
.Ltmp27:
	.loc	1 661 13 prologue_end           @ ../../../../Library/StdDriver/src/retarget.c:661:13
	ldr	r0, [sp, #4]
	.loc	1 661 9 is_stmt 0               @ ../../../../Library/StdDriver/src/retarget.c:661:9
	str	r0, [sp]
	.loc	1 663 5 is_stmt 1               @ ../../../../Library/StdDriver/src/retarget.c:663:5
	b	.LBB10_1
.LBB10_1:                               @ =>This Loop Header: Depth=1
                                        @     Child Loop BB10_3 Depth 2
                                        @     Child Loop BB10_7 Depth 2
	.loc	1 663 12 is_stmt 0              @ ../../../../Library/StdDriver/src/retarget.c:663:12
	ldr	r0, [sp]
	subs	r1, r0, #1
	str	r1, [sp]
	.loc	1 663 5                         @ ../../../../Library/StdDriver/src/retarget.c:663:5
	cmp	r0, #0
	beq	.LBB10_11
	b	.LBB10_2
.LBB10_2:                               @   in Loop: Header=BB10_1 Depth=1
.Ltmp28:
	.loc	1 664 9 is_stmt 1               @ ../../../../Library/StdDriver/src/retarget.c:664:9
	b	.LBB10_3
.LBB10_3:                               @   Parent Loop BB10_1 Depth=1
                                        @ =>  This Inner Loop Header: Depth=2
	.loc	1 0 9 is_stmt 0                 @ ../../../../Library/StdDriver/src/retarget.c:0:9
	ldr	r0, __arm_cp.10_0
	.loc	1 664 27                        @ ../../../../Library/StdDriver/src/retarget.c:664:27
	ldr	r0, [r0]
	.loc	1 664 9                         @ ../../../../Library/StdDriver/src/retarget.c:664:9
	lsls	r0, r0, #8
	cmp	r0, #0
	bpl	.LBB10_5
	b	.LBB10_4
.LBB10_4:                               @   in Loop: Header=BB10_3 Depth=2
	b	.LBB10_3
.LBB10_5:                               @   in Loop: Header=BB10_1 Depth=1
	.loc	1 666 32 is_stmt 1              @ ../../../../Library/StdDriver/src/retarget.c:666:32
	ldr	r0, [sp, #8]
	adds	r1, r0, #1
	str	r1, [sp, #8]
	.loc	1 666 28 is_stmt 0              @ ../../../../Library/StdDriver/src/retarget.c:666:28
	ldrb	r0, [r0]
	ldr	r1, __arm_cp.10_1
	.loc	1 666 26                        @ ../../../../Library/StdDriver/src/retarget.c:666:26
	str	r0, [r1]
.Ltmp29:
	.loc	1 668 13 is_stmt 1              @ ../../../../Library/StdDriver/src/retarget.c:668:13
	ldr	r0, [sp, #8]
	.loc	1 668 12 is_stmt 0              @ ../../../../Library/StdDriver/src/retarget.c:668:12
	ldrb	r0, [r0]
.Ltmp30:
	.loc	1 668 12                        @ ../../../../Library/StdDriver/src/retarget.c:668:12
	cmp	r0, #10
	bne	.LBB10_10
	b	.LBB10_6
.LBB10_6:                               @   in Loop: Header=BB10_1 Depth=1
.Ltmp31:
	.loc	1 669 13 is_stmt 1              @ ../../../../Library/StdDriver/src/retarget.c:669:13
	b	.LBB10_7
.LBB10_7:                               @   Parent Loop BB10_1 Depth=1
                                        @ =>  This Inner Loop Header: Depth=2
	.loc	1 0 13 is_stmt 0                @ ../../../../Library/StdDriver/src/retarget.c:0:13
	ldr	r0, __arm_cp.10_0
	.loc	1 669 31                        @ ../../../../Library/StdDriver/src/retarget.c:669:31
	ldr	r0, [r0]
	.loc	1 669 13                        @ ../../../../Library/StdDriver/src/retarget.c:669:13
	lsls	r0, r0, #8
	cmp	r0, #0
	bpl	.LBB10_9
	b	.LBB10_8
.LBB10_8:                               @   in Loop: Header=BB10_7 Depth=2
	b	.LBB10_7
.LBB10_9:                               @   in Loop: Header=BB10_1 Depth=1
	.loc	1 0 13                          @ ../../../../Library/StdDriver/src/retarget.c:0:13
	ldr	r1, __arm_cp.10_1
	movs	r0, #13
	.loc	1 670 30 is_stmt 1              @ ../../../../Library/StdDriver/src/retarget.c:670:30
	str	r0, [r1]
	.loc	1 671 9                         @ ../../../../Library/StdDriver/src/retarget.c:671:9
	b	.LBB10_10
.Ltmp32:
.LBB10_10:                              @   in Loop: Header=BB10_1 Depth=1
	.loc	1 663 5                         @ ../../../../Library/StdDriver/src/retarget.c:663:5
	b	.LBB10_1
.LBB10_11:
	.loc	1 673 12                        @ ../../../../Library/StdDriver/src/retarget.c:673:12
	ldr	r0, [sp, #4]
	.loc	1 673 5 epilogue_begin is_stmt 0 @ ../../../../Library/StdDriver/src/retarget.c:673:5
	add	sp, #16
	bx	lr
.Ltmp33:
	.p2align	2
@ %bb.12:
	.loc	1 0 5                           @ ../../../../Library/StdDriver/src/retarget.c:0:5
__arm_cp.10_0:
	.long	1074069528                      @ 0x40050018
.Lcpi_end16:
	.size	__arm_cp.10_0, .Lcpi_end16-__arm_cp.10_0
__arm_cp.10_1:
	.long	1074069504                      @ 0x40050000
.Lcpi_end17:
	.size	__arm_cp.10_1, .Lcpi_end17-__arm_cp.10_1
.Lfunc_end10:
	.size	_write, .Lfunc_end10-_write
	.cfi_endproc
	.cantunwind
	.fnend
                                        @ -- End function
	.section	.text._read,"ax",%progbits
	.hidden	_read                           @ -- Begin function _read
	.globl	_read
	.p2align	2
	.type	_read,%function
	.code	16                              @ @_read
	.thumb_func
_read:
.Lfunc_begin11:
	.loc	1 677 0 is_stmt 1               @ ../../../../Library/StdDriver/src/retarget.c:677:0
	.fnstart
	.cfi_startproc
@ %bb.0:
	.pad	#12
	sub	sp, #12
	.cfi_def_cfa_offset 12
	str	r0, [sp, #8]
	str	r1, [sp, #4]
	str	r2, [sp]
.Ltmp34:
	.loc	1 679 5 prologue_end            @ ../../../../Library/StdDriver/src/retarget.c:679:5
	b	.LBB11_1
.LBB11_1:                               @ =>This Inner Loop Header: Depth=1
	.loc	1 0 5 is_stmt 0                 @ ../../../../Library/StdDriver/src/retarget.c:0:5
	ldr	r0, __arm_cp.11_0
	.loc	1 679 24                        @ ../../../../Library/StdDriver/src/retarget.c:679:24
	ldr	r0, [r0]
	.loc	1 679 5                         @ ../../../../Library/StdDriver/src/retarget.c:679:5
	lsls	r0, r0, #17
	cmp	r0, #0
	bpl	.LBB11_3
	b	.LBB11_2
.LBB11_2:                               @   in Loop: Header=BB11_1 Depth=1
	b	.LBB11_1
.LBB11_3:
	.loc	1 0 5                           @ ../../../../Library/StdDriver/src/retarget.c:0:5
	ldr	r0, __arm_cp.11_1
	.loc	1 680 24 is_stmt 1              @ ../../../../Library/StdDriver/src/retarget.c:680:24
	ldr	r0, [r0]
	.loc	1 680 6 is_stmt 0               @ ../../../../Library/StdDriver/src/retarget.c:680:6
	ldr	r1, [sp, #4]
	.loc	1 680 10                        @ ../../../../Library/StdDriver/src/retarget.c:680:10
	strb	r0, [r1]
	movs	r0, #1
	.loc	1 681 5 epilogue_begin is_stmt 1 @ ../../../../Library/StdDriver/src/retarget.c:681:5
	add	sp, #12
	bx	lr
.Ltmp35:
	.p2align	2
@ %bb.4:
	.loc	1 0 5 is_stmt 0                 @ ../../../../Library/StdDriver/src/retarget.c:0:5
__arm_cp.11_0:
	.long	1074069528                      @ 0x40050018
.Lcpi_end18:
	.size	__arm_cp.11_0, .Lcpi_end18-__arm_cp.11_0
__arm_cp.11_1:
	.long	1074069504                      @ 0x40050000
.Lcpi_end19:
	.size	__arm_cp.11_1, .Lcpi_end19-__arm_cp.11_1
.Lfunc_end11:
	.size	_read, .Lfunc_end11-_read
	.cfi_endproc
	.cantunwind
	.fnend
                                        @ -- End function
	.type	.L.str,%object                  @ @.str
	.section	.rodata.str1.1,"aMS",%progbits,1
.L.str:
	.asciz	"In Hard Fault Handler\n"
	.size	.L.str, 23

	.hidden	__stdout                        @ @__stdout
	.type	__stdout,%object
	.section	.bss.__stdout,"aw",%nobits
	.globl	__stdout
	.p2align	2, 0x0
__stdout:
	.zero	4
	.size	__stdout, 4

	.hidden	__stdin                         @ @__stdin
	.type	__stdin,%object
	.section	.bss.__stdin,"aw",%nobits
	.globl	__stdin
	.p2align	2, 0x0
__stdin:
	.zero	4
	.size	__stdin, 4

	.type	.L.str.1,%object                @ @.str.1
	.section	.rodata.str1.1,"aMS",%progbits,1
.L.str.1:
	.asciz	"r0  = 0x%x\n"
	.size	.L.str.1, 12

	.type	.L.str.2,%object                @ @.str.2
.L.str.2:
	.asciz	"r1  = 0x%x\n"
	.size	.L.str.2, 12

	.type	.L.str.3,%object                @ @.str.3
.L.str.3:
	.asciz	"r2  = 0x%x\n"
	.size	.L.str.3, 12

	.type	.L.str.4,%object                @ @.str.4
.L.str.4:
	.asciz	"r3  = 0x%x\n"
	.size	.L.str.4, 12

	.type	.L.str.5,%object                @ @.str.5
.L.str.5:
	.asciz	"r12 = 0x%x\n"
	.size	.L.str.5, 12

	.type	.L.str.6,%object                @ @.str.6
.L.str.6:
	.asciz	"lr  = 0x%x\n"
	.size	.L.str.6, 12

	.type	.L.str.7,%object                @ @.str.7
.L.str.7:
	.asciz	"pc  = 0x%x\n"
	.size	.L.str.7, 12

	.type	.L.str.8,%object                @ @.str.8
.L.str.8:
	.asciz	"psr = 0x%x\n"
	.size	.L.str.8, 12

	.section	".note.GNU-stack","",%progbits
	.eabi_attribute	30, 6	@ Tag_ABI_optimization_goals
	.ARM_attribute	16, 1	@ Tag_AV_eba