	.text
	.syntax unified
	.eabi_attribute	67, "2.09"	@ Tag_conformance
	.cpu	cortex-m0
	.eabi_attribute	6, 12	@ Tag_CPU_arch
	.eabi_attribute	7, 77	@ Tag_CPU_arch_profile
	.eabi_attribute	8, 0	@ Tag_ARM_ISA_use
	.eabi_attribute	9, 1	@ Tag_THUMB_ISA_use
	.eabi_attribute	34, 0	@ Tag_CPU_unaligned_access
	.eabi_attribute	17, 1	@ Tag_ABI_PCS_GOT_use
	.eabi_attribute	20, 2	@ Tag_ABI_FP_denormal
	.eabi_attribute	21, 0	@ Tag_ABI_FP_exceptions
	.eabi_attribute	23, 1	@ Tag_ABI_FP_number_model
	.eabi_attribute	24, 1	@ Tag_ABI_align_needed
	.eabi_attribute	25, 1	@ Tag_ABI_align_preserved
	.eabi_attribute	38, 1	@ Tag_ABI_FP_16bit_format
	.eabi_attribute	18, 2	@ Tag_ABI_PCS_wchar_t
	.eabi_attribute	26, 1	@ Tag_ABI_enum_size
	.eabi_attribute	14, 0	@ Tag_ABI_PCS_R9_use
	.file	"uart.c"
	.file	1 "C:\\Users\\nguye\\Desktop\\crc\\SampleCode\\ExampleCode\\NUC240_Software_CRC\\KEIL" "../../../../Library/Device/Nuvoton/NUC230_240/Include\\NUC230_240.h"
	.file	2 "C:\\Keil_v5\\ARM\\ARMCLANG\\Bin\\..\\include" "stdint.h"
	.file	3 "C:\\Users\\nguye\\Desktop\\crc\\SampleCode\\ExampleCode\\NUC240_Software_CRC\\KEIL" "../../../../Library/CMSIS/Include\\core_cm0.h"
	.section	.text.UART_ClearIntFlag,"ax",%progbits
	.hidden	UART_ClearIntFlag               @ -- Begin function UART_ClearIntFlag
	.globl	UART_ClearIntFlag
	.p2align	2
	.type	UART_ClearIntFlag,%function
	.code	16                              @ @UART_ClearIntFlag
	.thumb_func
UART_ClearIntFlag:
.Lfunc_begin0:
	.file	4 "C:\\Users\\nguye\\Desktop\\crc\\SampleCode\\ExampleCode\\NUC240_Software_CRC\\KEIL" "../../../../Library/StdDriver/src/uart.c"
	.loc	4 42 0                          @ ../../../../Library/StdDriver/src/uart.c:42:0
	.fnstart
	.cfi_sections .debug_frame
	.cfi_startproc
@ %bb.0:
	.pad	#8
	sub	sp, #8
	.cfi_def_cfa_offset 8
	str	r0, [sp, #4]
	str	r1, [sp]
	mov	r0, sp
.Ltmp0:
	.loc	4 44 9 prologue_end             @ ../../../../Library/StdDriver/src/uart.c:44:9
	ldrb	r0, [r0, #1]
	lsls	r0, r0, #29
	cmp	r0, #0
	bpl	.LBB0_2
	b	.LBB0_1
.LBB0_1:
.Ltmp1:
	.loc	4 46 9                          @ ../../../../Library/StdDriver/src/uart.c:46:9
	ldr	r1, [sp, #4]
	movs	r0, #112
	.loc	4 46 19 is_stmt 0               @ ../../../../Library/StdDriver/src/uart.c:46:19
	str	r0, [r1, #24]
	.loc	4 47 9 is_stmt 1                @ ../../../../Library/StdDriver/src/uart.c:47:9
	ldr	r1, [sp, #4]
	movs	r0, #8
	.loc	4 47 19 is_stmt 0               @ ../../../../Library/StdDriver/src/uart.c:47:19
	str	r0, [r1, #24]
	.loc	4 48 5 is_stmt 1                @ ../../../../Library/StdDriver/src/uart.c:48:5
	b	.LBB0_2
.Ltmp2:
.LBB0_2:
	.loc	4 0 5 is_stmt 0                 @ ../../../../Library/StdDriver/src/uart.c:0:5
	mov	r0, sp
	.loc	4 50 9 is_stmt 1                @ ../../../../Library/StdDriver/src/uart.c:50:9
	ldrb	r0, [r0, #1]
	lsls	r0, r0, #28
	cmp	r0, #0
	bpl	.LBB0_4
	b	.LBB0_3
.LBB0_3:
.Ltmp3:
	.loc	4 51 9                          @ ../../../../Library/StdDriver/src/uart.c:51:9
	ldr	r1, [sp, #4]
	.loc	4 51 19 is_stmt 0               @ ../../../../Library/StdDriver/src/uart.c:51:19
	ldr	r0, [r1, #20]
	movs	r2, #1
	orrs	r0, r2
	str	r0, [r1, #20]
	.loc	4 51 9                          @ ../../../../Library/StdDriver/src/uart.c:51:9
	b	.LBB0_4
.Ltmp4:
.LBB0_4:
	.loc	4 0 9                           @ ../../../../Library/StdDriver/src/uart.c:0:9
	mov	r0, sp
	.loc	4 53 9 is_stmt 1                @ ../../../../Library/StdDriver/src/uart.c:53:9
	ldrb	r0, [r0, #1]
	lsls	r0, r0, #26
	cmp	r0, #0
	bpl	.LBB0_6
	b	.LBB0_5
.LBB0_5:
.Ltmp5:
	.loc	4 55 9                          @ ../../../../Library/StdDriver/src/uart.c:55:9
	ldr	r1, [sp, #4]
	ldr	r0, __arm_cp.0_0
	.loc	4 55 19 is_stmt 0               @ ../../../../Library/StdDriver/src/uart.c:55:19
	str	r0, [r1, #24]
	.loc	4 56 5 is_stmt 1                @ ../../../../Library/StdDriver/src/uart.c:56:5
	b	.LBB0_6
.Ltmp6:
.LBB0_6:
	.loc	4 0 5 is_stmt 0                 @ ../../../../Library/StdDriver/src/uart.c:0:5
	mov	r0, sp
	.loc	4 58 9 is_stmt 1                @ ../../../../Library/StdDriver/src/uart.c:58:9
	ldrb	r0, [r0, #1]
	lsls	r0, r0, #24
	cmp	r0, #0
	bpl	.LBB0_8
	b	.LBB0_7
.LBB0_7:
.Ltmp7:
	.loc	4 60 9                          @ ../../../../Library/StdDriver/src/uart.c:60:9
	ldr	r1, [sp, #4]
	movs	r0, #128
	.loc	4 60 19 is_stmt 0               @ ../../../../Library/StdDriver/src/uart.c:60:19
	str	r0, [r1, #28]
	.loc	4 61 9 is_stmt 1                @ ../../../../Library/StdDriver/src/uart.c:61:9
	ldr	r1, [sp, #4]
	ldr	r0, __arm_cp.0_1
	.loc	4 61 22 is_stmt 0               @ ../../../../Library/StdDriver/src/uart.c:61:22
	str	r0, [r1, #56]
	.loc	4 64 5 is_stmt 1                @ ../../../../Library/StdDriver/src/uart.c:64:5
	b	.LBB0_8
.Ltmp8:
.LBB0_8:
	.loc	4 66 1 epilogue_begin           @ ../../../../Library/StdDriver/src/uart.c:66:1
	add	sp, #8
	bx	lr
.Ltmp9:
	.p2align	2
@ %bb.9:
	.loc	4 0 1 is_stmt 0                 @ ../../../../Library/StdDriver/src/uart.c:0:1
__arm_cp.0_0:
	.long	16777217                        @ 0x1000001
.Lcpi_end0:
	.size	__arm_cp.0_0, .Lcpi_end0-__arm_cp.0_0
__arm_cp.0_1:
	.long	783                             @ 0x30f
.Lcpi_end1:
	.size	__arm_cp.0_1, .Lcpi_end1-__arm_cp.0_1
.Lfunc_end0:
	.size	UART_ClearIntFlag, .Lfunc_end0-UART_ClearIntFlag
	.cfi_endproc
	.cantunwind
	.fnend
                                        @ -- End function
	.section	.text.UART_Close,"ax",%progbits
	.hidden	UART_Close                      @ -- Begin function UART_Close
	.globl	UART_Close
	.p2align	1
	.type	UART_Close,%function
	.code	16                              @ @UART_Close
	.thumb_func
UART_Close:
.Lfunc_begin1:
	.loc	4 78 0 is_stmt 1                @ ../../../../Library/StdDriver/src/uart.c:78:0
	.fnstart
	.cfi_startproc
@ %bb.0:
	.pad	#4
	sub	sp, #4
	.cfi_def_cfa_offset 4
	str	r0, [sp]
.Ltmp10:
	.loc	4 79 5 prologue_end             @ ../../../../Library/StdDriver/src/uart.c:79:5
	ldr	r1, [sp]
	movs	r0, #0
	.loc	4 79 15 is_stmt 0               @ ../../../../Library/StdDriver/src/uart.c:79:15
	str	r0, [r1, #4]
	.loc	4 80 1 epilogue_begin is_stmt 1 @ ../../../../Library/StdDriver/src/uart.c:80:1
	add	sp, #4
	bx	lr
.Ltmp11:
.Lfunc_end1:
	.size	UART_Close, .Lfunc_end1-UART_Close
	.cfi_endproc
	.cantunwind
	.fnend
                                        @ -- End function
	.section	.text.UART_DisableFlowCtrl,"ax",%progbits
	.hidden	UART_DisableFlowCtrl            @ -- Begin function UART_DisableFlowCtrl
	.globl	UART_DisableFlowCtrl
	.p2align	1
	.type	UART_DisableFlowCtrl,%function
	.code	16                              @ @UART_DisableFlowCtrl
	.thumb_func
UART_DisableFlowCtrl:
.Lfunc_begin2:
	.loc	4 93 0                          @ ../../../../Library/StdDriver/src/uart.c:93:0
	.fnstart
	.cfi_startproc
@ %bb.0:
	.pad	#4
	sub	sp, #4
	.cfi_def_cfa_offset 4
	str	r0, [sp]
.Ltmp12:
	.loc	4 94 5 prologue_end             @ ../../../../Library/StdDriver/src/uart.c:94:5
	ldr	r1, [sp]
	.loc	4 94 15 is_stmt 0               @ ../../../../Library/StdDriver/src/uart.c:94:15
	ldr	r0, [r1, #4]
	movs	r2, #3
	lsls	r2, r2, #12
	bics	r0, r2
	str	r0, [r1, #4]
	.loc	4 95 1 epilogue_begin is_stmt 1 @ ../../../../Library/StdDriver/src/uart.c:95:1
	add	sp, #4
	bx	lr
.Ltmp13:
.Lfunc_end2:
	.size	UART_DisableFlowCtrl, .Lfunc_end2-UART_DisableFlowCtrl
	.cfi_endproc
	.cantunwind
	.fnend
                                        @ -- End function
	.section	.text.UART_DisableInt,"ax",%progbits
	.hidden	UART_DisableInt                 @ -- Begin function UART_DisableInt
	.globl	UART_DisableInt
	.p2align	2
	.type	UART_DisableInt,%function
	.code	16                              @ @UART_DisableInt
	.thumb_func
UART_DisableInt:
.Lfunc_begin3:
	.loc	4 117 0                         @ ../../../../Library/StdDriver/src/uart.c:117:0
	.fnstart
	.cfi_startproc
@ %bb.0:
	.save	{r7, lr}
	push	{r7, lr}
	.cfi_def_cfa_offset 8
	.cfi_offset lr, -4
	.cfi_offset r7, -8
	.pad	#8
	sub	sp, #8
	.cfi_def_cfa_offset 16
	str	r0, [sp, #4]
	str	r1, [sp]
.Ltmp14:
	.loc	4 119 5 prologue_end            @ ../../../../Library/StdDriver/src/uart.c:119:5
	ldr	r2, [sp]
	ldr	r1, [sp, #4]
	ldr	r0, [r1, #4]
	bics	r0, r2
	str	r0, [r1, #4]
.Ltmp15:
	.loc	4 122 9                         @ ../../../../Library/StdDriver/src/uart.c:122:9
	ldr	r0, [sp, #4]
	ldr	r1, __arm_cp.3_0
.Ltmp16:
	.loc	4 122 9 is_stmt 0               @ ../../../../Library/StdDriver/src/uart.c:122:9
	cmp	r0, r1
	bne	.LBB3_2
	b	.LBB3_1
.LBB3_1:
	.loc	4 0 9                           @ ../../../../Library/StdDriver/src/uart.c:0:9
	movs	r0, #12
.Ltmp17:
	.loc	4 123 9 is_stmt 1               @ ../../../../Library/StdDriver/src/uart.c:123:9
	bl	NVIC_DisableIRQ
	b	.LBB3_6
.LBB3_2:
.Ltmp18:
	.loc	4 124 14                        @ ../../../../Library/StdDriver/src/uart.c:124:14
	ldr	r0, [sp, #4]
	ldr	r1, __arm_cp.3_1
.Ltmp19:
	.loc	4 124 14 is_stmt 0              @ ../../../../Library/StdDriver/src/uart.c:124:14
	cmp	r0, r1
	bne	.LBB3_4
	b	.LBB3_3
.LBB3_3:
	.loc	4 0 14                          @ ../../../../Library/StdDriver/src/uart.c:0:14
	movs	r0, #13
.Ltmp20:
	.loc	4 125 9 is_stmt 1               @ ../../../../Library/StdDriver/src/uart.c:125:9
	bl	NVIC_DisableIRQ
	b	.LBB3_5
.LBB3_4:
	.loc	4 0 9 is_stmt 0                 @ ../../../../Library/StdDriver/src/uart.c:0:9
	movs	r0, #12
	.loc	4 127 9 is_stmt 1               @ ../../../../Library/StdDriver/src/uart.c:127:9
	bl	NVIC_DisableIRQ
	b	.LBB3_5
.Ltmp21:
.LBB3_5:
	.loc	4 0 9 is_stmt 0                 @ ../../../../Library/StdDriver/src/uart.c:0:9
	b	.LBB3_6
.LBB3_6:
	.loc	4 128 1 epilogue_begin is_stmt 1 @ ../../../../Library/StdDriver/src/uart.c:128:1
	add	sp, #8
	pop	{r7, pc}
.Ltmp22:
	.p2align	2
@ %bb.7:
	.loc	4 0 1 is_stmt 0                 @ ../../../../Library/StdDriver/src/uart.c:0:1
__arm_cp.3_0:
	.long	1074069504                      @ 0x40050000
.Lcpi_end2:
	.size	__arm_cp.3_0, .Lcpi_end2-__arm_cp.3_0
__arm_cp.3_1:
	.long	1075118080                      @ 0x40150000
.Lcpi_end3:
	.size	__arm_cp.3_1, .Lcpi_end3-__arm_cp.3_1
.Lfunc_end3:
	.size	UART_DisableInt, .Lfunc_end3-UART_DisableInt
	.cfi_endproc
	.cantunwind
	.fnend
                                        @ -- End function
	.section	.text.NVIC_DisableIRQ,"ax",%progbits
	.p2align	2                               @ -- Begin function NVIC_DisableIRQ
	.type	NVIC_DisableIRQ,%function
	.code	16                              @ @NVIC_DisableIRQ
	.thumb_func
NVIC_DisableIRQ:
.Lfunc_begin4:
	.loc	3 517 0 is_stmt 1               @ ../../../../Library/CMSIS/Include\core_cm0.h:517:0
	.fnstart
	.cfi_startproc
@ %bb.0:
	.pad	#4
	sub	sp, #4
	.cfi_def_cfa_offset 4
	mov	r1, r0
                                        @ kill: def $r0 killed $r1
	mov	r0, sp
	strb	r1, [r0]
.Ltmp23:
	.loc	3 518 26 prologue_end           @ ../../../../Library/CMSIS/Include\core_cm0.h:518:26
	ldrb	r1, [r0]
	movs	r0, #31
	.loc	3 518 43 is_stmt 0              @ ../../../../Library/CMSIS/Include\core_cm0.h:518:43
	ands	r1, r0
	movs	r0, #1
	.loc	3 518 22                        @ ../../../../Library/CMSIS/Include\core_cm0.h:518:22
	lsls	r0, r1
	ldr	r1, __arm_cp.4_0
	.loc	3 518 17                        @ ../../../../Library/CMSIS/Include\core_cm0.h:518:17
	str	r0, [r1]
	.loc	3 519 1 epilogue_begin is_stmt 1 @ ../../../../Library/CMSIS/Include\core_cm0.h:519:1
	add	sp, #4
	bx	lr
.Ltmp24:
	.p2align	2
@ %bb.1:
	.loc	3 0 1 is_stmt 0                 @ ../../../../Library/CMSIS/Include\core_cm0.h:0:1
__arm_cp.4_0:
	.long	3758154112                      @ 0xe000e180
.Lcpi_end4:
	.size	__arm_cp.4_0, .Lcpi_end4-__arm_cp.4_0
.Lfunc_end4:
	.size	NVIC_DisableIRQ, .Lfunc_end4-NVIC_DisableIRQ
	.cfi_endproc
	.cantunwind
	.fnend
                                        @ -- End function
	.section	.text.UART_EnableFlowCtrl,"ax",%progbits
	.hidden	UART_EnableFlowCtrl             @ -- Begin function UART_EnableFlowCtrl
	.globl	UART_EnableFlowCtrl
	.p2align	1
	.type	UART_EnableFlowCtrl,%function
	.code	16                              @ @UART_EnableFlowCtrl
	.thumb_func
UART_EnableFlowCtrl:
.Lfunc_begin5:
	.loc	4 141 0 is_stmt 1               @ ../../../../Library/StdDriver/src/uart.c:141:0
	.fnstart
	.cfi_startproc
@ %bb.0:
	.pad	#4
	sub	sp, #4
	.cfi_def_cfa_offset 4
	str	r0, [sp]
.Ltmp25:
	.loc	4 143 5 prologue_end            @ ../../../../Library/StdDriver/src/uart.c:143:5
	ldr	r1, [sp]
	.loc	4 143 15 is_stmt 0              @ ../../../../Library/StdDriver/src/uart.c:143:15
	ldr	r0, [r1, #16]
	movs	r2, #1
	lsls	r3, r2, #9
	orrs	r0, r3
	str	r0, [r1, #16]
	.loc	4 146 5 is_stmt 1               @ ../../../../Library/StdDriver/src/uart.c:146:5
	ldr	r1, [sp]
	.loc	4 146 15 is_stmt 0              @ ../../../../Library/StdDriver/src/uart.c:146:15
	ldr	r0, [r1, #20]
	lsls	r2, r2, #8
	orrs	r0, r2
	str	r0, [r1, #20]
	.loc	4 149 5 is_stmt 1               @ ../../../../Library/StdDriver/src/uart.c:149:5
	ldr	r1, [sp]
	.loc	4 149 15 is_stmt 0              @ ../../../../Library/StdDriver/src/uart.c:149:15
	ldr	r0, [r1, #4]
	movs	r2, #3
	lsls	r2, r2, #12
	orrs	r0, r2
	str	r0, [r1, #4]
	.loc	4 150 1 epilogue_begin is_stmt 1 @ ../../../../Library/StdDriver/src/uart.c:150:1
	add	sp, #4
	bx	lr
.Ltmp26:
.Lfunc_end5:
	.size	UART_EnableFlowCtrl, .Lfunc_end5-UART_EnableFlowCtrl
	.cfi_endproc
	.cantunwind
	.fnend
                                        @ -- End function
	.section	.text.UART_EnableInt,"ax",%progbits
	.hidden	UART_EnableInt                  @ -- Begin function UART_EnableInt
	.globl	UART_EnableInt
	.p2align	2
	.type	UART_EnableInt,%function
	.code	16                              @ @UART_EnableInt
	.thumb_func
UART_EnableInt:
.Lfunc_begin6:
	.loc	4 172 0                         @ ../../../../Library/StdDriver/src/uart.c:172:0
	.fnstart
	.cfi_startproc
@ %bb.0:
	.save	{r7, lr}
	push	{r7, lr}
	.cfi_def_cfa_offset 8
	.cfi_offset lr, -4
	.cfi_offset r7, -8
	.pad	#8
	sub	sp, #8
	.cfi_def_cfa_offset 16
	str	r0, [sp, #4]
	str	r1, [sp]
.Ltmp27:
	.loc	4 175 5 prologue_end            @ ../../../../Library/StdDriver/src/uart.c:175:5
	ldr	r2, [sp]
	ldr	r1, [sp, #4]
	ldr	r0, [r1, #4]
	orrs	r0, r2
	str	r0, [r1, #4]
.Ltmp28:
	.loc	4 178 9                         @ ../../../../Library/StdDriver/src/uart.c:178:9
	ldr	r0, [sp, #4]
	ldr	r1, __arm_cp.6_0
.Ltmp29:
	.loc	4 178 9 is_stmt 0               @ ../../../../Library/StdDriver/src/uart.c:178:9
	cmp	r0, r1
	bne	.LBB6_2
	b	.LBB6_1
.LBB6_1:
	.loc	4 0 9                           @ ../../../../Library/StdDriver/src/uart.c:0:9
	movs	r0, #12
.Ltmp30:
	.loc	4 179 9 is_stmt 1               @ ../../../../Library/StdDriver/src/uart.c:179:9
	bl	NVIC_EnableIRQ
	b	.LBB6_6
.LBB6_2:
.Ltmp31:
	.loc	4 180 14                        @ ../../../../Library/StdDriver/src/uart.c:180:14
	ldr	r0, [sp, #4]
	ldr	r1, __arm_cp.6_1
.Ltmp32:
	.loc	4 180 14 is_stmt 0              @ ../../../../Library/StdDriver/src/uart.c:180:14
	cmp	r0, r1
	bne	.LBB6_4
	b	.LBB6_3
.LBB6_3:
	.loc	4 0 14                          @ ../../../../Library/StdDriver/src/uart.c:0:14
	movs	r0, #13
.Ltmp33:
	.loc	4 181 9 is_stmt 1               @ ../../../../Library/StdDriver/src/uart.c:181:9
	bl	NVIC_EnableIRQ
	b	.LBB6_5
.LBB6_4:
	.loc	4 0 9 is_stmt 0                 @ ../../../../Library/StdDriver/src/uart.c:0:9
	movs	r0, #12
	.loc	4 183 9 is_stmt 1               @ ../../../../Library/StdDriver/src/uart.c:183:9
	bl	NVIC_EnableIRQ
	b	.LBB6_5
.Ltmp34:
.LBB6_5:
	.loc	4 0 9 is_stmt 0                 @ ../../../../Library/StdDriver/src/uart.c:0:9
	b	.LBB6_6
.LBB6_6:
	.loc	4 185 1 epilogue_begin is_stmt 1 @ ../../../../Library/StdDriver/src/uart.c:185:1
	add	sp, #8
	pop	{r7, pc}
.Ltmp35:
	.p2align	2
@ %bb.7:
	.loc	4 0 1 is_stmt 0                 @ ../../../../Library/StdDriver/src/uart.c:0:1
__arm_cp.6_0:
	.long	1074069504                      @ 0x40050000
.Lcpi_end5:
	.size	__arm_cp.6_0, .Lcpi_end5-__arm_cp.6_0
__arm_cp.6_1:
	.long	1075118080                      @ 0x40150000
.Lcpi_end6:
	.size	__arm_cp.6_1, .Lcpi_end6-__arm_cp.6_1
.Lfunc_end6:
	.size	UART_EnableInt, .Lfunc_end6-UART_EnableInt
	.cfi_endproc
	.cantunwind
	.fnend
                                        @ -- End function
	.section	.text.NVIC_EnableIRQ,"ax",%progbits
	.p2align	2                               @ -- Begin function NVIC_EnableIRQ
	.type	NVIC_EnableIRQ,%function
	.code	16                              @ @NVIC_EnableIRQ
	.thumb_func
NVIC_EnableIRQ:
.Lfunc_begin7:
	.loc	3 505 0 is_stmt 1               @ ../../../../Library/CMSIS/Include\core_cm0.h:505:0
	.fnstart
	.cfi_startproc
@ %bb.0:
	.pad	#4
	sub	sp, #4
	.cfi_def_cfa_offset 4
	mov	r1, r0
                                        @ kill: def $r0 killed $r1
	mov	r0, sp
	strb	r1, [r0]
.Ltmp36:
	.loc	3 506 26 prologue_end           @ ../../../../Library/CMSIS/Include\core_cm0.h:506:26
	ldrb	r1, [r0]
	movs	r0, #31
	.loc	3 506 43 is_stmt 0              @ ../../../../Library/CMSIS/Include\core_cm0.h:506:43
	ands	r1, r0
	movs	r0, #1
	.loc	3 506 22                        @ ../../../../Library/CMSIS/Include\core_cm0.h:506:22
	lsls	r0, r1
	ldr	r1, __arm_cp.7_0
	.loc	3 506 17                        @ ../../../../Library/CMSIS/Include\core_cm0.h:506:17
	str	r0, [r1]
	.loc	3 507 1 epilogue_begin is_stmt 1 @ ../../../../Library/CMSIS/Include\core_cm0.h:507:1
	add	sp, #4
	bx	lr
.Ltmp37:
	.p2align	2
@ %bb.1:
	.loc	3 0 1 is_stmt 0                 @ ../../../../Library/CMSIS/Include\core_cm0.h:0:1
__arm_cp.7_0:
	.long	3758153984                      @ 0xe000e100
.Lcpi_end7:
	.size	__arm_cp.7_0, .Lcpi_end7-__arm_cp.7_0
.Lfunc_end7:
	.size	NVIC_EnableIRQ, .Lfunc_end7-NVIC_EnableIRQ
	.cfi_endproc
	.cantunwind
	.fnend
                                        @ -- End function
	.section	.text.UART_Open,"ax",%progbits
	.hidden	UART_Open                       @ -- Begin function UART_Open
	.globl	UART_Open
	.p2align	2
	.type	UART_Open,%function
	.code	16                              @ @UART_Open
	.thumb_func
UART_Open:
.Lfunc_begin8:
	.loc	4 199 0 is_stmt 1               @ ../../../../Library/StdDriver/src/uart.c:199:0
	.fnstart
	.cfi_startproc
@ %bb.0:
	.save	{r4, lr}
	push	{r4, lr}
	.cfi_def_cfa_offset 8
	.cfi_offset lr, -4
	.cfi_offset r4, -8
	.pad	#40
	sub	sp, #40
	.cfi_def_cfa_offset 48
	str	r0, [sp, #36]
	str	r1, [sp, #32]
	ldr	r0, __arm_cp.8_0
.Ltmp38:
	.loc	4 201 14 prologue_end           @ ../../../../Library/StdDriver/src/uart.c:201:14
	str	r0, [sp, #20]
	movs	r2, #0
	str	r2, [sp, #16]
	str	r2, [sp, #12]
	ldr	r0, __arm_cp.8_1
	str	r0, [sp, #8]
	.loc	4 202 14                        @ ../../../../Library/StdDriver/src/uart.c:202:14
	str	r2, [sp, #4]
	ldr	r0, __arm_cp.8_2
	.loc	4 205 29                        @ ../../../../Library/StdDriver/src/uart.c:205:29
	ldr	r0, [r0]
	movs	r1, #3
	lsls	r3, r1, #24
	.loc	4 205 37 is_stmt 0              @ ../../../../Library/StdDriver/src/uart.c:205:37
	ands	r0, r3
	.loc	4 205 63                        @ ../../../../Library/StdDriver/src/uart.c:205:63
	lsrs	r3, r0, #24
	add	r0, sp, #28
	.loc	4 205 21                        @ ../../../../Library/StdDriver/src/uart.c:205:21
	strb	r3, [r0]
	ldr	r3, __arm_cp.8_3
	.loc	4 208 29 is_stmt 1              @ ../../../../Library/StdDriver/src/uart.c:208:29
	ldr	r3, [r3]
	movs	r4, #15
	lsls	r4, r4, #8
	.loc	4 208 36 is_stmt 0              @ ../../../../Library/StdDriver/src/uart.c:208:36
	ands	r3, r4
	.loc	4 208 61                        @ ../../../../Library/StdDriver/src/uart.c:208:61
	lsrs	r3, r3, #8
	add	r4, sp, #24
	.loc	4 208 21                        @ ../../../../Library/StdDriver/src/uart.c:208:21
	strb	r3, [r4]
	.loc	4 211 5 is_stmt 1               @ ../../../../Library/StdDriver/src/uart.c:211:5
	ldr	r3, [sp, #36]
	.loc	4 211 19 is_stmt 0              @ ../../../../Library/StdDriver/src/uart.c:211:19
	str	r2, [r3, #48]
	.loc	4 214 5 is_stmt 1               @ ../../../../Library/StdDriver/src/uart.c:214:5
	ldr	r2, [sp, #36]
	.loc	4 214 15 is_stmt 0              @ ../../../../Library/StdDriver/src/uart.c:214:15
	str	r1, [r2, #12]
	.loc	4 217 5 is_stmt 1               @ ../../../../Library/StdDriver/src/uart.c:217:5
	ldr	r2, [sp, #36]
	.loc	4 217 15 is_stmt 0              @ ../../../../Library/StdDriver/src/uart.c:217:15
	ldr	r1, [r2, #8]
	ldr	r3, __arm_cp.8_4
	ands	r1, r3
	str	r1, [r2, #8]
.Ltmp39:
	.loc	4 220 9 is_stmt 1               @ ../../../../Library/StdDriver/src/uart.c:220:9
	ldrb	r0, [r0]
.Ltmp40:
	.loc	4 220 9 is_stmt 0               @ ../../../../Library/StdDriver/src/uart.c:220:9
	cmp	r0, #1
	bne	.LBB8_2
	b	.LBB8_1
.LBB8_1:
.Ltmp41:
	.loc	4 221 38 is_stmt 1              @ ../../../../Library/StdDriver/src/uart.c:221:38
	bl	CLK_GetPLLClockFreq
	add	r1, sp, #28
	.loc	4 221 19 is_stmt 0              @ ../../../../Library/StdDriver/src/uart.c:221:19
	ldrb	r1, [r1]
	.loc	4 221 9                         @ ../../../../Library/StdDriver/src/uart.c:221:9
	lsls	r2, r1, #2
	add	r1, sp, #8
	.loc	4 221 36                        @ ../../../../Library/StdDriver/src/uart.c:221:36
	str	r0, [r1, r2]
	.loc	4 221 9                         @ ../../../../Library/StdDriver/src/uart.c:221:9
	b	.LBB8_2
.Ltmp42:
.LBB8_2:
	.loc	4 224 9 is_stmt 1               @ ../../../../Library/StdDriver/src/uart.c:224:9
	ldr	r0, [sp, #32]
.Ltmp43:
	.loc	4 224 9 is_stmt 0               @ ../../../../Library/StdDriver/src/uart.c:224:9
	cmp	r0, #0
	beq	.LBB8_7
	b	.LBB8_3
.LBB8_3:
	.loc	4 0 9                           @ ../../../../Library/StdDriver/src/uart.c:0:9
	add	r0, sp, #28
.Ltmp44:
	.loc	4 226 23 is_stmt 1              @ ../../../../Library/StdDriver/src/uart.c:226:23
	ldrb	r0, [r0]
	lsls	r1, r0, #2
	add	r0, sp, #8
	ldr	r0, [r0, r1]
	add	r1, sp, #24
	ldrb	r1, [r1]
	adds	r1, r1, #1
	bl	__aeabi_uidiv
	ldr	r1, [sp, #32]
	lsrs	r2, r1, #1
	adds	r0, r0, r2
	bl	__aeabi_uidiv
	subs	r0, r0, #2
	.loc	4 226 21 is_stmt 0              @ ../../../../Library/StdDriver/src/uart.c:226:21
	str	r0, [sp, #4]
	add	r0, sp, #4
.Ltmp45:
	.loc	4 228 13 is_stmt 1              @ ../../../../Library/StdDriver/src/uart.c:228:13
	ldrh	r0, [r0, #2]
.Ltmp46:
	.loc	4 228 13 is_stmt 0              @ ../../../../Library/StdDriver/src/uart.c:228:13
	cmp	r0, #0
	beq	.LBB8_5
	b	.LBB8_4
.LBB8_4:
	.loc	4 0 13                          @ ../../../../Library/StdDriver/src/uart.c:0:13
	add	r0, sp, #28
.Ltmp47:
	.loc	4 229 45 is_stmt 1              @ ../../../../Library/StdDriver/src/uart.c:229:45
	ldrb	r0, [r0]
	lsls	r1, r0, #2
	add	r0, sp, #8
	ldr	r0, [r0, r1]
	add	r1, sp, #24
	ldrb	r1, [r1]
	adds	r1, r1, #1
	bl	__aeabi_uidiv
	ldr	r1, [sp, #32]
	lsls	r2, r1, #3
	adds	r0, r0, r2
	bl	__aeabi_uidiv
	lsrs	r0, r0, #4
	subs	r0, r0, #2
	.loc	4 229 13 is_stmt 0              @ ../../../../Library/StdDriver/src/uart.c:229:13
	ldr	r1, [sp, #36]
	.loc	4 229 24                        @ ../../../../Library/StdDriver/src/uart.c:229:24
	str	r0, [r1, #36]
	.loc	4 229 13                        @ ../../../../Library/StdDriver/src/uart.c:229:13
	b	.LBB8_6
.LBB8_5:
	.loc	4 231 45 is_stmt 1              @ ../../../../Library/StdDriver/src/uart.c:231:45
	ldr	r0, [sp, #4]
	movs	r1, #3
	lsls	r1, r1, #28
	.loc	4 231 43 is_stmt 0              @ ../../../../Library/StdDriver/src/uart.c:231:43
	orrs	r0, r1
	.loc	4 231 13                        @ ../../../../Library/StdDriver/src/uart.c:231:13
	ldr	r1, [sp, #36]
	.loc	4 231 24                        @ ../../../../Library/StdDriver/src/uart.c:231:24
	str	r0, [r1, #36]
	b	.LBB8_6
.Ltmp48:
.LBB8_6:
	.loc	4 232 5 is_stmt 1               @ ../../../../Library/StdDriver/src/uart.c:232:5
	b	.LBB8_7
.Ltmp49:
.LBB8_7:
	.loc	4 233 1 epilogue_begin          @ ../../../../Library/StdDriver/src/uart.c:233:1
	add	sp, #40
	pop	{r4, pc}
.Ltmp50:
	.p2align	2
@ %bb.8:
	.loc	4 0 1 is_stmt 0                 @ ../../../../Library/StdDriver/src/uart.c:0:1
__arm_cp.8_0:
	.long	22118400                        @ 0x1518000
.Lcpi_end8:
	.size	__arm_cp.8_0, .Lcpi_end8-__arm_cp.8_0
__arm_cp.8_1:
	.long	12000000                        @ 0xb71b00
.Lcpi_end9:
	.size	__arm_cp.8_1, .Lcpi_end9-__arm_cp.8_1
__arm_cp.8_2:
	.long	1342177812                      @ 0x50000214
.Lcpi_end10:
	.size	__arm_cp.8_2, .Lcpi_end10-__arm_cp.8_2
__arm_cp.8_3:
	.long	1342177816                      @ 0x50000218
.Lcpi_end11:
	.size	__arm_cp.8_3, .Lcpi_end11-__arm_cp.8_3
__arm_cp.8_4:
	.long	4293984015                      @ 0xfff0ff0f
.Lcpi_end12:
	.size	__arm_cp.8_4, .Lcpi_end12-__arm_cp.8_4
.Lfunc_end8:
	.size	UART_Open, .Lfunc_end8-UART_Open
	.cfi_endproc
	.cantunwind
	.fnend
                                        @ -- End function
	.section	.text.CLK_GetPLLClockFreq,"ax",%progbits
	.p2align	2                               @ -- Begin function CLK_GetPLLClockFreq
	.type	CLK_GetPLLClockFreq,%function
	.code	16                              @ @CLK_GetPLLClockFreq
	.thumb_func
CLK_GetPLLClockFreq:
.Lfunc_begin9:
	.file	5 "C:\\Users\\nguye\\Desktop\\crc\\SampleCode\\ExampleCode\\NUC240_Software_CRC\\KEIL" "../../../../Library/StdDriver/inc\\clk.h"
	.loc	5 448 0 is_stmt 1               @ ../../../../Library/StdDriver/inc\clk.h:448:0
	.fnstart
	.cfi_startproc
@ %bb.0:
	.save	{r7, lr}
	push	{r7, lr}
	.cfi_def_cfa_offset 8
	.cfi_offset lr, -4
	.cfi_offset r7, -8
	.pad	#32
	sub	sp, #32
	.cfi_def_cfa_offset 40
	movs	r0, #0
.Ltmp51:
	.loc	5 449 14 prologue_end           @ ../../../../Library/StdDriver/inc\clk.h:449:14
	str	r0, [sp, #24]
	ldr	r0, __arm_cp.9_0
	.loc	5 451 13                        @ ../../../../Library/StdDriver/inc\clk.h:451:13
	str	r0, [sp]
	ldr	r0, __arm_cp.9_1
	.loc	5 453 22                        @ ../../../../Library/StdDriver/inc\clk.h:453:22
	ldr	r0, [r0]
	.loc	5 453 15 is_stmt 0              @ ../../../../Library/StdDriver/inc\clk.h:453:15
	str	r0, [sp, #20]
	add	r0, sp, #20
	.loc	5 455 9 is_stmt 1               @ ../../../../Library/StdDriver/inc\clk.h:455:9
	ldrb	r0, [r0, #2]
	movs	r1, #5
	tst	r0, r1
	beq	.LBB9_2
	b	.LBB9_1
.LBB9_1:
	.loc	5 0 9 is_stmt 0                 @ ../../../../Library/StdDriver/inc\clk.h:0:9
	movs	r0, #0
.Ltmp52:
	.loc	5 456 9 is_stmt 1               @ ../../../../Library/StdDriver/inc\clk.h:456:9
	str	r0, [sp, #28]
	b	.LBB9_8
.Ltmp53:
.LBB9_2:
	.loc	5 0 9 is_stmt 0                 @ ../../../../Library/StdDriver/inc\clk.h:0:9
	add	r0, sp, #20
	.loc	5 458 9 is_stmt 1               @ ../../../../Library/StdDriver/inc\clk.h:458:9
	ldrb	r0, [r0, #2]
	lsls	r0, r0, #28
	cmp	r0, #0
	bpl	.LBB9_4
	b	.LBB9_3
.LBB9_3:
	.loc	5 0 9 is_stmt 0                 @ ../../../../Library/StdDriver/inc\clk.h:0:9
	ldr	r0, __arm_cp.9_3
.Ltmp54:
	.loc	5 459 16 is_stmt 1              @ ../../../../Library/StdDriver/inc\clk.h:459:16
	str	r0, [sp, #16]
	.loc	5 459 9 is_stmt 0               @ ../../../../Library/StdDriver/inc\clk.h:459:9
	b	.LBB9_5
.LBB9_4:
	.loc	5 0 9                           @ ../../../../Library/StdDriver/inc\clk.h:0:9
	ldr	r0, __arm_cp.9_2
	.loc	5 461 16 is_stmt 1              @ ../../../../Library/StdDriver/inc\clk.h:461:16
	str	r0, [sp, #16]
	b	.LBB9_5
.Ltmp55:
.LBB9_5:
	.loc	5 0 16 is_stmt 0                @ ../../../../Library/StdDriver/inc\clk.h:0:16
	add	r0, sp, #20
	.loc	5 463 9 is_stmt 1               @ ../../../../Library/StdDriver/inc\clk.h:463:9
	ldrb	r0, [r0, #2]
	lsls	r0, r0, #30
	cmp	r0, #0
	bpl	.LBB9_7
	b	.LBB9_6
.LBB9_6:
.Ltmp56:
	.loc	5 464 16                        @ ../../../../Library/StdDriver/inc\clk.h:464:16
	ldr	r0, [sp, #16]
	.loc	5 464 9 is_stmt 0               @ ../../../../Library/StdDriver/inc\clk.h:464:9
	str	r0, [sp, #28]
	b	.LBB9_8
.Ltmp57:
.LBB9_7:
	.loc	5 0 9                           @ ../../../../Library/StdDriver/inc\clk.h:0:9
	add	r0, sp, #20
	.loc	5 467 24 is_stmt 1              @ ../../../../Library/StdDriver/inc\clk.h:467:24
	ldrh	r0, [r0]
	.loc	5 467 59 is_stmt 0              @ ../../../../Library/StdDriver/inc\clk.h:467:59
	lsrs	r1, r0, #14
	mov	r0, sp
	.loc	5 467 13                        @ ../../../../Library/StdDriver/inc\clk.h:467:13
	adds	r0, r0, r1
	ldrb	r0, [r0]
	.loc	5 467 11                        @ ../../../../Library/StdDriver/inc\clk.h:467:11
	str	r0, [sp, #4]
	.loc	5 468 15 is_stmt 1              @ ../../../../Library/StdDriver/inc\clk.h:468:15
	ldr	r0, [sp, #20]
	ldr	r1, __arm_cp.9_4
	.loc	5 468 25 is_stmt 0              @ ../../../../Library/StdDriver/inc\clk.h:468:25
	ands	r0, r1
	.loc	5 468 74                        @ ../../../../Library/StdDriver/inc\clk.h:468:74
	adds	r0, r0, #2
	.loc	5 468 11                        @ ../../../../Library/StdDriver/inc\clk.h:468:11
	str	r0, [sp, #12]
	.loc	5 469 15 is_stmt 1              @ ../../../../Library/StdDriver/inc\clk.h:469:15
	ldr	r0, [sp, #20]
	movs	r1, #31
	lsls	r1, r1, #9
	.loc	5 469 25 is_stmt 0              @ ../../../../Library/StdDriver/inc\clk.h:469:25
	ands	r0, r1
	.loc	5 469 49                        @ ../../../../Library/StdDriver/inc\clk.h:469:49
	lsrs	r0, r0, #9
	.loc	5 469 74                        @ ../../../../Library/StdDriver/inc\clk.h:469:74
	adds	r0, r0, #2
	.loc	5 469 11                        @ ../../../../Library/StdDriver/inc\clk.h:469:11
	str	r0, [sp, #8]
	.loc	5 472 21 is_stmt 1              @ ../../../../Library/StdDriver/inc\clk.h:472:21
	ldr	r0, [sp, #16]
	.loc	5 472 28 is_stmt 0              @ ../../../../Library/StdDriver/inc\clk.h:472:28
	lsrs	r1, r0, #2
	.loc	5 472 36                        @ ../../../../Library/StdDriver/inc\clk.h:472:36
	ldr	r0, [sp, #12]
	.loc	5 472 34                        @ ../../../../Library/StdDriver/inc\clk.h:472:34
	muls	r0, r1, r0
	.loc	5 472 46                        @ ../../../../Library/StdDriver/inc\clk.h:472:46
	ldr	r2, [sp, #8]
	.loc	5 472 54                        @ ../../../../Library/StdDriver/inc\clk.h:472:54
	ldr	r1, [sp, #4]
	.loc	5 472 52                        @ ../../../../Library/StdDriver/inc\clk.h:472:52
	muls	r1, r2, r1
	.loc	5 472 43                        @ ../../../../Library/StdDriver/inc\clk.h:472:43
	bl	__aeabi_uidiv
	.loc	5 472 61                        @ ../../../../Library/StdDriver/inc\clk.h:472:61
	lsls	r0, r0, #2
	.loc	5 472 16                        @ ../../../../Library/StdDriver/inc\clk.h:472:16
	str	r0, [sp, #24]
	.loc	5 474 12 is_stmt 1              @ ../../../../Library/StdDriver/inc\clk.h:474:12
	ldr	r0, [sp, #24]
	.loc	5 474 5 is_stmt 0               @ ../../../../Library/StdDriver/inc\clk.h:474:5
	str	r0, [sp, #28]
	b	.LBB9_8
.LBB9_8:
	.loc	5 475 1 is_stmt 1               @ ../../../../Library/StdDriver/inc\clk.h:475:1
	ldr	r0, [sp, #28]
	.loc	5 475 1 epilogue_begin is_stmt 0 @ ../../../../Library/StdDriver/inc\clk.h:475:1
	add	sp, #32
	pop	{r7, pc}
.Ltmp58:
	.p2align	2
@ %bb.9:
	.loc	5 0 1                           @ ../../../../Library/StdDriver/inc\clk.h:0:1
__arm_cp.9_0:
	.long	67240449                        @ 0x4020201
.Lcpi_end13:
	.size	__arm_cp.9_0, .Lcpi_end13-__arm_cp.9_0
__arm_cp.9_1:
	.long	1342177824                      @ 0x50000220
.Lcpi_end14:
	.size	__arm_cp.9_1, .Lcpi_end14-__arm_cp.9_1
__arm_cp.9_2:
	.long	12000000                        @ 0xb71b00
.Lcpi_end15:
	.size	__arm_cp.9_2, .Lcpi_end15-__arm_cp.9_2
__arm_cp.9_3:
	.long	22118400                        @ 0x1518000
.Lcpi_end16:
	.size	__arm_cp.9_3, .Lcpi_end16-__arm_cp.9_3
__arm_cp.9_4:
	.long	511                             @ 0x1ff
.Lcpi_end17:
	.size	__arm_cp.9_4, .Lcpi_end17-__arm_cp.9_4
.Lfunc_end9:
	.size	CLK_GetPLLClockFreq, .Lfunc_end9-CLK_GetPLLClockFreq
	.cfi_endproc
	.cantunwind
	.fnend
                                        @ -- End function
	.section	.text.UART_Read,"ax",%progbits
	.hidden	UART_Read                       @ -- Begin function UART_Read
	.globl	UART_Read
	.p2align	1
	.type	UART_Read,%function
	.code	16                              @ @UART_Read
	.thumb_func
UART_Read:
.Lfunc_begin10:
	.loc	4 248 0 is_stmt 1               @ ../../../../Library/StdDriver/src/uart.c:248:0
	.fnstart
	.cfi_startproc
@ %bb.0:
	.pad	#24
	sub	sp, #24
	.cfi_def_cfa_offset 24
	str	r0, [sp, #16]
	str	r1, [sp, #12]
	str	r2, [sp, #8]
	movs	r0, #0
.Ltmp59:
	.loc	4 251 19 prologue_end           @ ../../../../Library/StdDriver/src/uart.c:251:19
	str	r0, [sp, #4]
	.loc	4 251 10 is_stmt 0              @ ../../../../Library/StdDriver/src/uart.c:251:10
	b	.LBB10_1
.LBB10_1:                               @ =>This Loop Header: Depth=1
                                        @     Child Loop BB10_3 Depth 2
.Ltmp60:
	.loc	4 251 24                        @ ../../../../Library/StdDriver/src/uart.c:251:24
	ldr	r0, [sp, #4]
	.loc	4 251 35                        @ ../../../../Library/StdDriver/src/uart.c:251:35
	ldr	r1, [sp, #8]
.Ltmp61:
	.loc	4 251 5                         @ ../../../../Library/StdDriver/src/uart.c:251:5
	cmp	r0, r1
	bhs	.LBB10_9
	b	.LBB10_2
.LBB10_2:                               @   in Loop: Header=BB10_1 Depth=1
	.loc	4 0 5                           @ ../../../../Library/StdDriver/src/uart.c:0:5
	movs	r0, #0
.Ltmp62:
	.loc	4 253 20 is_stmt 1              @ ../../../../Library/StdDriver/src/uart.c:253:20
	str	r0, [sp]
	.loc	4 255 9                         @ ../../../../Library/StdDriver/src/uart.c:255:9
	b	.LBB10_3
.LBB10_3:                               @   Parent Loop BB10_1 Depth=1
                                        @ =>  This Inner Loop Header: Depth=2
	.loc	4 255 16 is_stmt 0              @ ../../../../Library/StdDriver/src/uart.c:255:16
	ldr	r0, [sp, #16]
	.loc	4 255 22                        @ ../../../../Library/StdDriver/src/uart.c:255:22
	ldr	r0, [r0, #24]
	.loc	4 255 9                         @ ../../../../Library/StdDriver/src/uart.c:255:9
	lsls	r0, r0, #17
	cmp	r0, #0
	bpl	.LBB10_7
	b	.LBB10_4
.LBB10_4:                               @   in Loop: Header=BB10_3 Depth=2
.Ltmp63:
	.loc	4 257 23 is_stmt 1              @ ../../../../Library/StdDriver/src/uart.c:257:23
	ldr	r0, [sp]
	adds	r0, r0, #1
	str	r0, [sp]
.Ltmp64:
	.loc	4 259 17                        @ ../../../../Library/StdDriver/src/uart.c:259:17
	ldr	r0, [sp]
.Ltmp65:
	.loc	4 259 17 is_stmt 0              @ ../../../../Library/StdDriver/src/uart.c:259:17
	lsrs	r0, r0, #30
	cmp	r0, #0
	beq	.LBB10_6
	b	.LBB10_5
.LBB10_5:
	.loc	4 0 17                          @ ../../../../Library/StdDriver/src/uart.c:0:17
	movs	r0, #0
.Ltmp66:
	.loc	4 260 17 is_stmt 1              @ ../../../../Library/StdDriver/src/uart.c:260:17
	str	r0, [sp, #20]
	b	.LBB10_10
.Ltmp67:
.LBB10_6:                               @   in Loop: Header=BB10_3 Depth=2
	.loc	4 255 9                         @ ../../../../Library/StdDriver/src/uart.c:255:9
	b	.LBB10_3
.LBB10_7:                               @   in Loop: Header=BB10_1 Depth=1
	.loc	4 263 30                        @ ../../../../Library/StdDriver/src/uart.c:263:30
	ldr	r0, [sp, #16]
	.loc	4 263 36 is_stmt 0              @ ../../../../Library/StdDriver/src/uart.c:263:36
	ldr	r0, [r0]
	.loc	4 263 9                         @ ../../../../Library/StdDriver/src/uart.c:263:9
	ldr	r1, [sp, #12]
	.loc	4 263 18                        @ ../../../../Library/StdDriver/src/uart.c:263:18
	ldr	r2, [sp, #4]
	.loc	4 263 28                        @ ../../../../Library/StdDriver/src/uart.c:263:28
	strb	r0, [r1, r2]
	.loc	4 264 5 is_stmt 1               @ ../../../../Library/StdDriver/src/uart.c:264:5
	b	.LBB10_8
.Ltmp68:
.LBB10_8:                               @   in Loop: Header=BB10_1 Depth=1
	.loc	4 251 57                        @ ../../../../Library/StdDriver/src/uart.c:251:57
	ldr	r0, [sp, #4]
	adds	r0, r0, #1
	str	r0, [sp, #4]
	.loc	4 251 5 is_stmt 0               @ ../../../../Library/StdDriver/src/uart.c:251:5
	b	.LBB10_1
.Ltmp69:
.LBB10_9:
	.loc	4 266 12 is_stmt 1              @ ../../../../Library/StdDriver/src/uart.c:266:12
	ldr	r0, [sp, #4]
	.loc	4 266 5 is_stmt 0               @ ../../../../Library/StdDriver/src/uart.c:266:5
	str	r0, [sp, #20]
	b	.LBB10_10
.LBB10_10:
	.loc	4 268 1 is_stmt 1               @ ../../../../Library/StdDriver/src/uart.c:268:1
	ldr	r0, [sp, #20]
	.loc	4 268 1 epilogue_begin is_stmt 0 @ ../../../../Library/StdDriver/src/uart.c:268:1
	add	sp, #24
	bx	lr
.Ltmp70:
.Lfunc_end10:
	.size	UART_Read, .Lfunc_end10-UART_Read
	.cfi_endproc
	.cantunwind
	.fnend
                                        @ -- End function
	.section	.text.UART_SetLine_Config,"ax",%progbits
	.hidden	UART_SetLine_Config             @ -- Begin function UART_SetLine_Config
	.globl	UART_SetLine_Config
	.p2align	2
	.type	UART_SetLine_Config,%function
	.code	16                              @ @UART_SetLine_Config
	.thumb_func
UART_SetLine_Config:
.Lfunc_begin11:
	.loc	4 299 0 is_stmt 1               @ ../../../../Library/StdDriver/src/uart.c:299:0
	.fnstart
	.cfi_startproc
@ %bb.0:
	.save	{r4, lr}
	push	{r4, lr}
	.cfi_def_cfa_offset 8
	.cfi_offset lr, -4
	.cfi_offset r4, -8
	.pad	#48
	sub	sp, #48
	.cfi_def_cfa_offset 56
	ldr	r4, [sp, #56]
	str	r0, [sp, #44]
	str	r1, [sp, #40]
	str	r2, [sp, #36]
	str	r3, [sp, #32]
	ldr	r0, __arm_cp.11_0
.Ltmp71:
	.loc	4 301 14 prologue_end           @ ../../../../Library/StdDriver/src/uart.c:301:14
	str	r0, [sp, #20]
	movs	r0, #0
	str	r0, [sp, #16]
	str	r0, [sp, #12]
	ldr	r1, __arm_cp.11_1
	str	r1, [sp, #8]
	.loc	4 302 14                        @ ../../../../Library/StdDriver/src/uart.c:302:14
	str	r0, [sp, #4]
	ldr	r0, __arm_cp.11_2
	.loc	4 305 29                        @ ../../../../Library/StdDriver/src/uart.c:305:29
	ldr	r0, [r0]
	movs	r1, #3
	lsls	r1, r1, #24
	.loc	4 305 37 is_stmt 0              @ ../../../../Library/StdDriver/src/uart.c:305:37
	ands	r0, r1
	.loc	4 305 63                        @ ../../../../Library/StdDriver/src/uart.c:305:63
	lsrs	r1, r0, #24
	add	r0, sp, #28
	.loc	4 305 21                        @ ../../../../Library/StdDriver/src/uart.c:305:21
	strb	r1, [r0]
	ldr	r1, __arm_cp.11_3
	.loc	4 308 29 is_stmt 1              @ ../../../../Library/StdDriver/src/uart.c:308:29
	ldr	r1, [r1]
	movs	r2, #15
	lsls	r2, r2, #8
	.loc	4 308 36 is_stmt 0              @ ../../../../Library/StdDriver/src/uart.c:308:36
	ands	r1, r2
	.loc	4 308 61                        @ ../../../../Library/StdDriver/src/uart.c:308:61
	lsrs	r1, r1, #8
	add	r2, sp, #24
	.loc	4 308 21                        @ ../../../../Library/StdDriver/src/uart.c:308:21
	strb	r1, [r2]
.Ltmp72:
	.loc	4 311 9 is_stmt 1               @ ../../../../Library/StdDriver/src/uart.c:311:9
	ldrb	r0, [r0]
.Ltmp73:
	.loc	4 311 9 is_stmt 0               @ ../../../../Library/StdDriver/src/uart.c:311:9
	cmp	r0, #1
	bne	.LBB11_2
	b	.LBB11_1
.LBB11_1:
.Ltmp74:
	.loc	4 312 38 is_stmt 1              @ ../../../../Library/StdDriver/src/uart.c:312:38
	bl	CLK_GetPLLClockFreq
	add	r1, sp, #28
	.loc	4 312 19 is_stmt 0              @ ../../../../Library/StdDriver/src/uart.c:312:19
	ldrb	r1, [r1]
	.loc	4 312 9                         @ ../../../../Library/StdDriver/src/uart.c:312:9
	lsls	r2, r1, #2
	add	r1, sp, #8
	.loc	4 312 36                        @ ../../../../Library/StdDriver/src/uart.c:312:36
	str	r0, [r1, r2]
	.loc	4 312 9                         @ ../../../../Library/StdDriver/src/uart.c:312:9
	b	.LBB11_2
.Ltmp75:
.LBB11_2:
	.loc	4 315 9 is_stmt 1               @ ../../../../Library/StdDriver/src/uart.c:315:9
	ldr	r0, [sp, #40]
.Ltmp76:
	.loc	4 315 9 is_stmt 0               @ ../../../../Library/StdDriver/src/uart.c:315:9
	cmp	r0, #0
	beq	.LBB11_7
	b	.LBB11_3
.LBB11_3:
	.loc	4 0 9                           @ ../../../../Library/StdDriver/src/uart.c:0:9
	add	r0, sp, #28
.Ltmp77:
	.loc	4 317 23 is_stmt 1              @ ../../../../Library/StdDriver/src/uart.c:317:23
	ldrb	r0, [r0]
	lsls	r1, r0, #2
	add	r0, sp, #8
	ldr	r0, [r0, r1]
	add	r1, sp, #24
	ldrb	r1, [r1]
	adds	r1, r1, #1
	bl	__aeabi_uidiv
	ldr	r1, [sp, #40]
	lsrs	r2, r1, #1
	adds	r0, r0, r2
	bl	__aeabi_uidiv
	subs	r0, r0, #2
	.loc	4 317 21 is_stmt 0              @ ../../../../Library/StdDriver/src/uart.c:317:21
	str	r0, [sp, #4]
	add	r0, sp, #4
.Ltmp78:
	.loc	4 319 13 is_stmt 1              @ ../../../../Library/StdDriver/src/uart.c:319:13
	ldrh	r0, [r0, #2]
.Ltmp79:
	.loc	4 319 13 is_stmt 0              @ ../../../../Library/StdDriver/src/uart.c:319:13
	cmp	r0, #0
	beq	.LBB11_5
	b	.LBB11_4
.LBB11_4:
	.loc	4 0 13                          @ ../../../../Library/StdDriver/src/uart.c:0:13
	add	r0, sp, #28
.Ltmp80:
	.loc	4 320 45 is_stmt 1              @ ../../../../Library/StdDriver/src/uart.c:320:45
	ldrb	r0, [r0]
	lsls	r1, r0, #2
	add	r0, sp, #8
	ldr	r0, [r0, r1]
	add	r1, sp, #24
	ldrb	r1, [r1]
	adds	r1, r1, #1
	bl	__aeabi_uidiv
	ldr	r1, [sp, #40]
	lsls	r2, r1, #3
	adds	r0, r0, r2
	bl	__aeabi_uidiv
	lsrs	r0, r0, #4
	subs	r0, r0, #2
	.loc	4 320 13 is_stmt 0              @ ../../../../Library/StdDriver/src/uart.c:320:13
	ldr	r1, [sp, #44]
	.loc	4 320 24                        @ ../../../../Library/StdDriver/src/uart.c:320:24
	str	r0, [r1, #36]
	.loc	4 320 13                        @ ../../../../Library/StdDriver/src/uart.c:320:13
	b	.LBB11_6
.LBB11_5:
	.loc	4 322 45 is_stmt 1              @ ../../../../Library/StdDriver/src/uart.c:322:45
	ldr	r0, [sp, #4]
	movs	r1, #3
	lsls	r1, r1, #28
	.loc	4 322 43 is_stmt 0              @ ../../../../Library/StdDriver/src/uart.c:322:43
	orrs	r0, r1
	.loc	4 322 13                        @ ../../../../Library/StdDriver/src/uart.c:322:13
	ldr	r1, [sp, #44]
	.loc	4 322 24                        @ ../../../../Library/StdDriver/src/uart.c:322:24
	str	r0, [r1, #36]
	b	.LBB11_6
.Ltmp81:
.LBB11_6:
	.loc	4 323 5 is_stmt 1               @ ../../../../Library/StdDriver/src/uart.c:323:5
	b	.LBB11_7
.Ltmp82:
.LBB11_7:
	.loc	4 326 17                        @ ../../../../Library/StdDriver/src/uart.c:326:17
	ldr	r0, [sp, #36]
	.loc	4 326 33 is_stmt 0              @ ../../../../Library/StdDriver/src/uart.c:326:33
	ldr	r1, [sp, #32]
	.loc	4 326 31                        @ ../../../../Library/StdDriver/src/uart.c:326:31
	orrs	r0, r1
	.loc	4 326 45                        @ ../../../../Library/StdDriver/src/uart.c:326:45
	ldr	r1, [sp, #56]
	.loc	4 326 43                        @ ../../../../Library/StdDriver/src/uart.c:326:43
	orrs	r0, r1
	.loc	4 326 5                         @ ../../../../Library/StdDriver/src/uart.c:326:5
	ldr	r1, [sp, #44]
	.loc	4 326 15                        @ ../../../../Library/StdDriver/src/uart.c:326:15
	str	r0, [r1, #12]
	.loc	4 327 1 epilogue_begin is_stmt 1 @ ../../../../Library/StdDriver/src/uart.c:327:1
	add	sp, #48
	pop	{r4, pc}
.Ltmp83:
	.p2align	2
@ %bb.8:
	.loc	4 0 1 is_stmt 0                 @ ../../../../Library/StdDriver/src/uart.c:0:1
__arm_cp.11_0:
	.long	22118400                        @ 0x1518000
.Lcpi_end18:
	.size	__arm_cp.11_0, .Lcpi_end18-__arm_cp.11_0
__arm_cp.11_1:
	.long	12000000                        @ 0xb71b00
.Lcpi_end19:
	.size	__arm_cp.11_1, .Lcpi_end19-__arm_cp.11_1
__arm_cp.11_2:
	.long	1342177812                      @ 0x50000214
.Lcpi_end20:
	.size	__arm_cp.11_2, .Lcpi_end20-__arm_cp.11_2
__arm_cp.11_3:
	.long	1342177816                      @ 0x50000218
.Lcpi_end21:
	.size	__arm_cp.11_3, .Lcpi_end21-__arm_cp.11_3
.Lfunc_end11:
	.size	UART_SetLine_Config, .Lfunc_end11-UART_SetLine_Config
	.cfi_endproc
	.cantunwind
	.fnend
                                        @ -- End function
	.section	.text.UART_SetTimeoutCnt,"ax",%progbits
	.hidden	UART_SetTimeoutCnt              @ -- Begin function UART_SetTimeoutCnt
	.globl	UART_SetTimeoutCnt
	.p2align	1
	.type	UART_SetTimeoutCnt,%function
	.code	16                              @ @UART_SetTimeoutCnt
	.thumb_func
UART_SetTimeoutCnt:
.Lfunc_begin12:
	.loc	4 341 0 is_stmt 1               @ ../../../../Library/StdDriver/src/uart.c:341:0
	.fnstart
	.cfi_startproc
@ %bb.0:
	.pad	#8
	sub	sp, #8
	.cfi_def_cfa_offset 8
	str	r0, [sp, #4]
	str	r1, [sp]
.Ltmp84:
	.loc	4 343 18 prologue_end           @ ../../../../Library/StdDriver/src/uart.c:343:18
	ldr	r0, [sp, #4]
	.loc	4 343 24 is_stmt 0              @ ../../../../Library/StdDriver/src/uart.c:343:24
	ldr	r0, [r0, #32]
	movs	r1, #255
	.loc	4 343 28                        @ ../../../../Library/StdDriver/src/uart.c:343:28
	bics	r0, r1
	.loc	4 343 53                        @ ../../../../Library/StdDriver/src/uart.c:343:53
	ldr	r1, [sp]
	.loc	4 343 50                        @ ../../../../Library/StdDriver/src/uart.c:343:50
	orrs	r0, r1
	.loc	4 343 5                         @ ../../../../Library/StdDriver/src/uart.c:343:5
	ldr	r1, [sp, #4]
	.loc	4 343 15                        @ ../../../../Library/StdDriver/src/uart.c:343:15
	str	r0, [r1, #32]
	.loc	4 346 5 is_stmt 1               @ ../../../../Library/StdDriver/src/uart.c:346:5
	ldr	r1, [sp, #4]
	.loc	4 346 15 is_stmt 0              @ ../../../../Library/StdDriver/src/uart.c:346:15
	ldr	r0, [r1, #4]
	movs	r2, #1
	lsls	r2, r2, #11
	orrs	r0, r2
	str	r0, [r1, #4]
	.loc	4 347 1 epilogue_begin is_stmt 1 @ ../../../../Library/StdDriver/src/uart.c:347:1
	add	sp, #8
	bx	lr
.Ltmp85:
.Lfunc_end12:
	.size	UART_SetTimeoutCnt, .Lfunc_end12-UART_SetTimeoutCnt
	.cfi_endproc
	.cantunwind
	.fnend
                                        @ -- End function
	.section	.text.UART_SelectIrDAMode,"ax",%progbits
	.hidden	UART_SelectIrDAMode             @ -- Begin function UART_SelectIrDAMode
	.globl	UART_SelectIrDAMode
	.p2align	2
	.type	UART_SelectIrDAMode,%function
	.code	16                              @ @UART_SelectIrDAMode
	.thumb_func
UART_SelectIrDAMode:
.Lfunc_begin13:
	.loc	4 364 0                         @ ../../../../Library/StdDriver/src/uart.c:364:0
	.fnstart
	.cfi_startproc
@ %bb.0:
	.save	{r7, lr}
	push	{r7, lr}
	.cfi_def_cfa_offset 8
	.cfi_offset lr, -4
	.cfi_offset r7, -8
	.pad	#40
	sub	sp, #40
	.cfi_def_cfa_offset 48
	str	r0, [sp, #36]
	str	r1, [sp, #32]
	str	r2, [sp, #28]
	ldr	r0, __arm_cp.13_0
.Ltmp86:
	.loc	4 366 14 prologue_end           @ ../../../../Library/StdDriver/src/uart.c:366:14
	str	r0, [sp, #16]
	movs	r0, #0
	str	r0, [sp, #12]
	str	r0, [sp, #8]
	ldr	r0, __arm_cp.13_1
	str	r0, [sp, #4]
	.loc	4 370 5                         @ ../../../../Library/StdDriver/src/uart.c:370:5
	ldr	r1, [sp, #36]
	movs	r0, #2
	.loc	4 370 19 is_stmt 0              @ ../../../../Library/StdDriver/src/uart.c:370:19
	str	r0, [r1, #48]
	ldr	r0, __arm_cp.13_2
	.loc	4 373 29 is_stmt 1              @ ../../../../Library/StdDriver/src/uart.c:373:29
	ldr	r0, [r0]
	movs	r1, #3
	lsls	r1, r1, #24
	.loc	4 373 37 is_stmt 0              @ ../../../../Library/StdDriver/src/uart.c:373:37
	ands	r0, r1
	.loc	4 373 63                        @ ../../../../Library/StdDriver/src/uart.c:373:63
	lsrs	r1, r0, #24
	add	r0, sp, #24
	.loc	4 373 21                        @ ../../../../Library/StdDriver/src/uart.c:373:21
	strb	r1, [r0]
	ldr	r1, __arm_cp.13_3
	.loc	4 376 29 is_stmt 1              @ ../../../../Library/StdDriver/src/uart.c:376:29
	ldr	r1, [r1]
	movs	r2, #15
	lsls	r2, r2, #8
	.loc	4 376 36 is_stmt 0              @ ../../../../Library/StdDriver/src/uart.c:376:36
	ands	r1, r2
	.loc	4 376 61                        @ ../../../../Library/StdDriver/src/uart.c:376:61
	lsrs	r1, r1, #8
	add	r2, sp, #20
	.loc	4 376 21                        @ ../../../../Library/StdDriver/src/uart.c:376:21
	strb	r1, [r2]
.Ltmp87:
	.loc	4 379 9 is_stmt 1               @ ../../../../Library/StdDriver/src/uart.c:379:9
	ldrb	r0, [r0]
.Ltmp88:
	.loc	4 379 9 is_stmt 0               @ ../../../../Library/StdDriver/src/uart.c:379:9
	cmp	r0, #1
	bne	.LBB13_2
	b	.LBB13_1
.LBB13_1:
.Ltmp89:
	.loc	4 380 38 is_stmt 1              @ ../../../../Library/StdDriver/src/uart.c:380:38
	bl	CLK_GetPLLClockFreq
	add	r1, sp, #24
	.loc	4 380 19 is_stmt 0              @ ../../../../Library/StdDriver/src/uart.c:380:19
	ldrb	r1, [r1]
	.loc	4 380 9                         @ ../../../../Library/StdDriver/src/uart.c:380:9
	lsls	r2, r1, #2
	add	r1, sp, #4
	.loc	4 380 36                        @ ../../../../Library/StdDriver/src/uart.c:380:36
	str	r0, [r1, r2]
	.loc	4 380 9                         @ ../../../../Library/StdDriver/src/uart.c:380:9
	b	.LBB13_2
.Ltmp90:
.LBB13_2:
	.loc	4 383 9 is_stmt 1               @ ../../../../Library/StdDriver/src/uart.c:383:9
	ldr	r0, [sp, #32]
.Ltmp91:
	.loc	4 383 9 is_stmt 0               @ ../../../../Library/StdDriver/src/uart.c:383:9
	cmp	r0, #0
	beq	.LBB13_6
	b	.LBB13_3
.LBB13_3:
	.loc	4 0 9                           @ ../../../../Library/StdDriver/src/uart.c:0:9
	add	r0, sp, #24
.Ltmp92:
	.loc	4 385 23 is_stmt 1              @ ../../../../Library/StdDriver/src/uart.c:385:23
	ldrb	r0, [r0]
	lsls	r1, r0, #2
	add	r0, sp, #4
	ldr	r0, [r0, r1]
	add	r1, sp, #20
	ldrb	r1, [r1]
	adds	r1, r1, #1
	bl	__aeabi_uidiv
	ldr	r1, [sp, #32]
	lsls	r2, r1, #3
	adds	r0, r0, r2
	bl	__aeabi_uidiv
	lsrs	r0, r0, #4
	subs	r0, r0, #2
	.loc	4 385 21 is_stmt 0              @ ../../../../Library/StdDriver/src/uart.c:385:21
	str	r0, [sp]
.Ltmp93:
	.loc	4 387 13 is_stmt 1              @ ../../../../Library/StdDriver/src/uart.c:387:13
	ldr	r0, [sp]
	ldr	r1, __arm_cp.13_4
.Ltmp94:
	.loc	4 387 13 is_stmt 0              @ ../../../../Library/StdDriver/src/uart.c:387:13
	cmp	r0, r1
	bhi	.LBB13_5
	b	.LBB13_4
.LBB13_4:
.Ltmp95:
	.loc	4 388 45 is_stmt 1              @ ../../../../Library/StdDriver/src/uart.c:388:45
	ldr	r0, [sp]
	.loc	4 388 13 is_stmt 0              @ ../../../../Library/StdDriver/src/uart.c:388:13
	ldr	r1, [sp, #36]
	.loc	4 388 24                        @ ../../../../Library/StdDriver/src/uart.c:388:24
	str	r0, [r1, #36]
	.loc	4 388 13                        @ ../../../../Library/StdDriver/src/uart.c:388:13
	b	.LBB13_5
.Ltmp96:
.LBB13_5:
	.loc	4 389 5 is_stmt 1               @ ../../../../Library/StdDriver/src/uart.c:389:5
	b	.LBB13_6
.Ltmp97:
.LBB13_6:
	.loc	4 392 9                         @ ../../../../Library/StdDriver/src/uart.c:392:9
	ldr	r0, [sp, #28]
.Ltmp98:
	.loc	4 392 9 is_stmt 0               @ ../../../../Library/StdDriver/src/uart.c:392:9
	cmp	r0, #1
	bne	.LBB13_8
	b	.LBB13_7
.LBB13_7:
.Ltmp99:
	.loc	4 394 9 is_stmt 1               @ ../../../../Library/StdDriver/src/uart.c:394:9
	ldr	r1, [sp, #36]
	.loc	4 394 20 is_stmt 0              @ ../../../../Library/StdDriver/src/uart.c:394:20
	ldr	r0, [r1, #40]
	movs	r2, #32
	bics	r0, r2
	str	r0, [r1, #40]
	.loc	4 395 9 is_stmt 1               @ ../../../../Library/StdDriver/src/uart.c:395:9
	ldr	r1, [sp, #36]
	.loc	4 395 20 is_stmt 0              @ ../../../../Library/StdDriver/src/uart.c:395:20
	ldr	r0, [r1, #40]
	movs	r2, #2
	orrs	r0, r2
	str	r0, [r1, #40]
	.loc	4 396 5 is_stmt 1               @ ../../../../Library/StdDriver/src/uart.c:396:5
	b	.LBB13_9
.Ltmp100:
.LBB13_8:
	.loc	4 399 9                         @ ../../../../Library/StdDriver/src/uart.c:399:9
	ldr	r1, [sp, #36]
	.loc	4 399 20 is_stmt 0              @ ../../../../Library/StdDriver/src/uart.c:399:20
	ldr	r0, [r1, #40]
	movs	r2, #64
	orrs	r0, r2
	str	r0, [r1, #40]
	.loc	4 400 9 is_stmt 1               @ ../../../../Library/StdDriver/src/uart.c:400:9
	ldr	r1, [sp, #36]
	.loc	4 400 20 is_stmt 0              @ ../../../../Library/StdDriver/src/uart.c:400:20
	ldr	r0, [r1, #40]
	movs	r2, #2
	bics	r0, r2
	str	r0, [r1, #40]
	b	.LBB13_9
.Ltmp101:
.LBB13_9:
	.loc	4 402 1 epilogue_begin is_stmt 1 @ ../../../../Library/StdDriver/src/uart.c:402:1
	add	sp, #40
	pop	{r7, pc}
.Ltmp102:
	.p2align	2
@ %bb.10:
	.loc	4 0 1 is_stmt 0                 @ ../../../../Library/StdDriver/src/uart.c:0:1
__arm_cp.13_0:
	.long	22118400                        @ 0x1518000
.Lcpi_end22:
	.size	__arm_cp.13_0, .Lcpi_end22-__arm_cp.13_0
__arm_cp.13_1:
	.long	12000000                        @ 0xb71b00
.Lcpi_end23:
	.size	__arm_cp.13_1, .Lcpi_end23-__arm_cp.13_1
__arm_cp.13_2:
	.long	1342177812                      @ 0x50000214
.Lcpi_end24:
	.size	__arm_cp.13_2, .Lcpi_end24-__arm_cp.13_2
__arm_cp.13_3:
	.long	1342177816                      @ 0x50000218
.Lcpi_end25:
	.size	__arm_cp.13_3, .Lcpi_end25-__arm_cp.13_3
__arm_cp.13_4:
	.long	65534                           @ 0xfffe
.Lcpi_end26:
	.size	__arm_cp.13_4, .Lcpi_end26-__arm_cp.13_4
.Lfunc_end13:
	.size	UART_SelectIrDAMode, .Lfunc_end13-UART_SelectIrDAMode
	.cfi_endproc
	.cantunwind
	.fnend
                                        @ -- End function
	.section	.text.UART_SelectRS485Mode,"ax",%progbits
	.hidden	UART_SelectRS485Mode            @ -- Begin function UART_SelectRS485Mode
	.globl	UART_SelectRS485Mode
	.p2align	2
	.type	UART_SelectRS485Mode,%function
	.code	16                              @ @UART_SelectRS485Mode
	.thumb_func
UART_SelectRS485Mode:
.Lfunc_begin14:
	.loc	4 420 0 is_stmt 1               @ ../../../../Library/StdDriver/src/uart.c:420:0
	.fnstart
	.cfi_startproc
@ %bb.0:
	.pad	#12
	sub	sp, #12
	.cfi_def_cfa_offset 12
	str	r0, [sp, #8]
	str	r1, [sp, #4]
	str	r2, [sp]
.Ltmp103:
	.loc	4 422 5 prologue_end            @ ../../../../Library/StdDriver/src/uart.c:422:5
	ldr	r1, [sp, #8]
	movs	r0, #3
	.loc	4 422 19 is_stmt 0              @ ../../../../Library/StdDriver/src/uart.c:422:19
	str	r0, [r1, #48]
	.loc	4 425 5 is_stmt 1               @ ../../../../Library/StdDriver/src/uart.c:425:5
	ldr	r1, [sp, #8]
	.loc	4 425 19 is_stmt 0              @ ../../../../Library/StdDriver/src/uart.c:425:19
	ldr	r0, [r1, #44]
	ldr	r2, __arm_cp.14_0
	ands	r0, r2
	str	r0, [r1, #44]
	.loc	4 426 23 is_stmt 1              @ ../../../../Library/StdDriver/src/uart.c:426:23
	ldr	r2, [sp, #4]
	.loc	4 426 34 is_stmt 0              @ ../../../../Library/StdDriver/src/uart.c:426:34
	ldr	r0, [sp]
	.loc	4 426 42                        @ ../../../../Library/StdDriver/src/uart.c:426:42
	lsls	r0, r0, #24
	.loc	4 426 31                        @ ../../../../Library/StdDriver/src/uart.c:426:31
	orrs	r2, r0
	.loc	4 426 5                         @ ../../../../Library/StdDriver/src/uart.c:426:5
	ldr	r1, [sp, #8]
	.loc	4 426 19                        @ ../../../../Library/StdDriver/src/uart.c:426:19
	ldr	r0, [r1, #44]
	orrs	r0, r2
	str	r0, [r1, #44]
	.loc	4 427 1 epilogue_begin is_stmt 1 @ ../../../../Library/StdDriver/src/uart.c:427:1
	add	sp, #12
	bx	lr
.Ltmp104:
	.p2align	2
@ %bb.1:
	.loc	4 0 1 is_stmt 0                 @ ../../../../Library/StdDriver/src/uart.c:0:1
__arm_cp.14_0:
	.long	16775423                        @ 0xfff8ff
.Lcpi_end27:
	.size	__arm_cp.14_0, .Lcpi_end27-__arm_cp.14_0
.Lfunc_end14:
	.size	UART_SelectRS485Mode, .Lfunc_end14-UART_SelectRS485Mode
	.cfi_endproc
	.cantunwind
	.fnend
                                        @ -- End function
	.section	.text.UART_SelectLINMode,"ax",%progbits
	.hidden	UART_SelectLINMode              @ -- Begin function UART_SelectLINMode
	.globl	UART_SelectLINMode
	.p2align	1
	.type	UART_SelectLINMode,%function
	.code	16                              @ @UART_SelectLINMode
	.thumb_func
UART_SelectLINMode:
.Lfunc_begin15:
	.loc	4 445 0 is_stmt 1               @ ../../../../Library/StdDriver/src/uart.c:445:0
	.fnstart
	.cfi_startproc
@ %bb.0:
	.pad	#12
	sub	sp, #12
	.cfi_def_cfa_offset 12
	str	r0, [sp, #8]
	str	r1, [sp, #4]
	str	r2, [sp]
.Ltmp105:
	.loc	4 447 5 prologue_end            @ ../../../../Library/StdDriver/src/uart.c:447:5
	ldr	r1, [sp, #8]
	movs	r0, #1
	.loc	4 447 19 is_stmt 0              @ ../../../../Library/StdDriver/src/uart.c:447:19
	str	r0, [r1, #48]
	.loc	4 450 5 is_stmt 1               @ ../../../../Library/StdDriver/src/uart.c:450:5
	ldr	r1, [sp, #8]
	.loc	4 450 19 is_stmt 0              @ ../../../../Library/StdDriver/src/uart.c:450:19
	ldr	r0, [r1, #44]
	movs	r2, #207
	bics	r0, r2
	str	r0, [r1, #44]
	.loc	4 451 23 is_stmt 1              @ ../../../../Library/StdDriver/src/uart.c:451:23
	ldr	r2, [sp, #4]
	.loc	4 451 34 is_stmt 0              @ ../../../../Library/StdDriver/src/uart.c:451:34
	ldr	r0, [sp]
	.loc	4 451 31                        @ ../../../../Library/StdDriver/src/uart.c:451:31
	orrs	r2, r0
	.loc	4 451 5                         @ ../../../../Library/StdDriver/src/uart.c:451:5
	ldr	r1, [sp, #8]
	.loc	4 451 19                        @ ../../../../Library/StdDriver/src/uart.c:451:19
	ldr	r0, [r1, #44]
	orrs	r0, r2
	str	r0, [r1, #44]
	.loc	4 452 1 epilogue_begin is_stmt 1 @ ../../../../Library/StdDriver/src/uart.c:452:1
	add	sp, #12
	bx	lr
.Ltmp106:
.Lfunc_end15:
	.size	UART_SelectLINMode, .Lfunc_end15-UART_SelectLINMode
	.cfi_endproc
	.cantunwind
	.fnend
                                        @ -- End function
	.section	.text.UART_Write,"ax",%progbits
	.hidden	UART_Write                      @ -- Begin function UART_Write
	.globl	UART_Write
	.p2align	1
	.type	UART_Write,%function
	.code	16                              @ @UART_Write
	.thumb_func
UART_Write:
.Lfunc_begin16:
	.loc	4 467 0                         @ ../../../../Library/StdDriver/src/uart.c:467:0
	.fnstart
	.cfi_startproc
@ %bb.0:
	.pad	#24
	sub	sp, #24
	.cfi_def_cfa_offset 24
	str	r0, [sp, #16]
	str	r1, [sp, #12]
	str	r2, [sp, #8]
	movs	r0, #0
.Ltmp107:
	.loc	4 470 19 prologue_end           @ ../../../../Library/StdDriver/src/uart.c:470:19
	str	r0, [sp, #4]
	.loc	4 470 10 is_stmt 0              @ ../../../../Library/StdDriver/src/uart.c:470:10
	b	.LBB16_1
.LBB16_1:                               @ =>This Loop Header: Depth=1
                                        @     Child Loop BB16_3 Depth 2
.Ltmp108:
	.loc	4 470 24                        @ ../../../../Library/StdDriver/src/uart.c:470:24
	ldr	r0, [sp, #4]
	.loc	4 470 36                        @ ../../../../Library/StdDriver/src/uart.c:470:36
	ldr	r1, [sp, #8]
.Ltmp109:
	.loc	4 470 5                         @ ../../../../Library/StdDriver/src/uart.c:470:5
	cmp	r0, r1
	beq	.LBB16_9
	b	.LBB16_2
.LBB16_2:                               @   in Loop: Header=BB16_1 Depth=1
	.loc	4 0 5                           @ ../../../../Library/StdDriver/src/uart.c:0:5
	movs	r0, #0
.Ltmp110:
	.loc	4 472 20 is_stmt 1              @ ../../../../Library/StdDriver/src/uart.c:472:20
	str	r0, [sp]
	.loc	4 474 9                         @ ../../../../Library/StdDriver/src/uart.c:474:9
	b	.LBB16_3
.LBB16_3:                               @   Parent Loop BB16_1 Depth=1
                                        @ =>  This Inner Loop Header: Depth=2
	.loc	4 474 17 is_stmt 0              @ ../../../../Library/StdDriver/src/uart.c:474:17
	ldr	r0, [sp, #16]
	.loc	4 474 23                        @ ../../../../Library/StdDriver/src/uart.c:474:23
	ldr	r0, [r0, #24]
	.loc	4 474 9                         @ ../../../../Library/StdDriver/src/uart.c:474:9
	lsls	r0, r0, #3
	cmp	r0, #0
	bmi	.LBB16_7
	b	.LBB16_4
.LBB16_4:                               @   in Loop: Header=BB16_3 Depth=2
.Ltmp111:
	.loc	4 476 23 is_stmt 1              @ ../../../../Library/StdDriver/src/uart.c:476:23
	ldr	r0, [sp]
	adds	r0, r0, #1
	str	r0, [sp]
.Ltmp112:
	.loc	4 478 17                        @ ../../../../Library/StdDriver/src/uart.c:478:17
	ldr	r0, [sp]
.Ltmp113:
	.loc	4 478 17 is_stmt 0              @ ../../../../Library/StdDriver/src/uart.c:478:17
	lsrs	r0, r0, #30
	cmp	r0, #0
	beq	.LBB16_6
	b	.LBB16_5
.LBB16_5:
	.loc	4 0 17                          @ ../../../../Library/StdDriver/src/uart.c:0:17
	movs	r0, #0
.Ltmp114:
	.loc	4 479 17 is_stmt 1              @ ../../../../Library/StdDriver/src/uart.c:479:17
	str	r0, [sp, #20]
	b	.LBB16_10
.Ltmp115:
.LBB16_6:                               @   in Loop: Header=BB16_3 Depth=2
	.loc	4 474 9                         @ ../../../../Library/StdDriver/src/uart.c:474:9
	b	.LBB16_3
.LBB16_7:                               @   in Loop: Header=BB16_1 Depth=1
	.loc	4 482 21                        @ ../../../../Library/StdDriver/src/uart.c:482:21
	ldr	r0, [sp, #12]
	.loc	4 482 30 is_stmt 0              @ ../../../../Library/StdDriver/src/uart.c:482:30
	ldr	r1, [sp, #4]
	.loc	4 482 21                        @ ../../../../Library/StdDriver/src/uart.c:482:21
	ldrb	r0, [r0, r1]
	.loc	4 482 9                         @ ../../../../Library/StdDriver/src/uart.c:482:9
	ldr	r1, [sp, #16]
	.loc	4 482 19                        @ ../../../../Library/StdDriver/src/uart.c:482:19
	str	r0, [r1]
	.loc	4 483 5 is_stmt 1               @ ../../../../Library/StdDriver/src/uart.c:483:5
	b	.LBB16_8
.Ltmp116:
.LBB16_8:                               @   in Loop: Header=BB16_1 Depth=1
	.loc	4 470 59                        @ ../../../../Library/StdDriver/src/uart.c:470:59
	ldr	r0, [sp, #4]
	adds	r0, r0, #1
	str	r0, [sp, #4]
	.loc	4 470 5 is_stmt 0               @ ../../../../Library/StdDriver/src/uart.c:470:5
	b	.LBB16_1
.Ltmp117:
.LBB16_9:
	.loc	4 485 12 is_stmt 1              @ ../../../../Library/StdDriver/src/uart.c:485:12
	ldr	r0, [sp, #4]
	.loc	4 485 5 is_stmt 0               @ ../../../../Library/StdDriver/src/uart.c:485:5
	str	r0, [sp, #20]
	b	.LBB16_10
.LBB16_10:
	.loc	4 487 1 is_stmt 1               @ ../../../../Library/StdDriver/src/uart.c:487:1
	ldr	r0, [sp, #20]
	.loc	4 487 1 epilogue_begin is_stmt 0 @ ../../../../Library/StdDriver/src/uart.c:487:1
	add	sp, #24
	bx	lr
.Ltmp118:
.Lfunc_end16:
	.size	UART_Write, .Lfunc_end16-UART_Write
	.cfi_endproc
	.cantunwind
	.fnend
                                        @ -- End function
	.type	.L__const.UART_Open.u32ClkTbl,%object @ @__const.UART_Open.u32ClkTbl
	.section	.rodata.cst16,"aM",%progbits,16
	.p2align	2, 0x0
.L__const.UART_Open.u32ClkTbl:
	.long	12000000                        @ 0xb71b00
	.long	0                               @ 0x0
	.long	0                               @ 0x0
	.long	22118400                        @ 0x1518000
	.size	.L__const.UART_Open.u32ClkTbl, 16

	.type	.L__const.UART_SetLine_Config.u32ClkTbl,%object @ @__const.UART_SetLine_Config.u32ClkTbl
	.p2align	2, 0x0
.L__const.UART_SetLine_Config.u32ClkTbl:
	.long	12000000                        @ 0xb71b00
	.long	0                               @ 0x0
	.long	0                               @ 0x0
	.long	22118400                        @ 0x1518000
	.size	.L__const.UART_SetLine_Config.u32ClkTbl, 16

	.type	.L__const.UART_SelectIrDAMode.u32ClkTbl,%object @ @__const.UART_SelectIrDAMode.u32ClkTbl
	.p2align	2, 0x0
.L__const.UART_SelectIrDAMode.u32ClkTbl:
	.long	12000000                        @ 0xb71b00
	.long	0                               @ 0x0
	.long	0                               @ 0x0
	.long	22118400                        @ 0x1518000
	.size	.L__const.UART_SelectIrDAMode.u32ClkTbl, 16

	.type	.L__const.CLK_GetPLLClockFreq.au8NoTbl,%object @ @__const.CLK_GetPLLClockFreq.au8NoTbl
	.section	.rodata.cst4,"aM",%progbits,4
.L__const.CLK_GetPLLClockFreq.au8NoTbl:
	.ascii	"\001\002\002\004"
	.size	.L__const.CLK_GetPLLClockFreq.au8NoTbl, 4

	.section	".note.GNU-stack","",%progbits
	.eabi_attribute	30, 6	@ Tag_ABI_optimization_goals
	.ARM_attribute	16, 1	@ Tag_AV_eba